(dp1
S'output'
p2
S"<type 'exceptions.NameError'> name 'auth' is not defined"
p3
sS'layer'
p4
S'/var/www/web2py/applications/teste_ldap/models/config.py'
p5
sS'code'
p6
S'# -*- coding: utf-8 -*-\nfrom gluon.storage import Storage\n\nconfig = Storage(\n    db=Storage(),\n)\n\n#Conex\xc3\xa3o com o Banco de Dados\nif request.is_local:\n    config.db.uri = "postgres:pg8000://matheus:123456@localhost/teste_ldap"\nelse:\n    config.db.uri = "postgres:pg8000://forip:yma2578k@127.0.0.1/teste_ldap"\ndb = DAL(**config.db)\n\n#Importa\xc3\xa7\xc3\xb5es\nfrom gluon.tools import Auth\nfrom gluon.contrib.login_methods.ldap_auth import ldap_auth\n#Login com LDAP\nauth.settings.login_methods = [ldap_auth(mode=\'ad\',\n    manage_groups= True, \n    db = db,\n    group_name_attrib = \'cn\',\n    group_member_attrib = \'member\',\n    group_filterstr = \'objectClass=Group\',\n    server=\'<server>\',\n    base_dn=\'DC=sambadominio,DC=sambadominio.local\')]\n#Configura\xc3\xa7\xc3\xa3o Auth\nauth = Auth(db, controller="principal",function="login")\nauth.settings.formstyle = "divs"\nauth.settings.login_next = URL(a=\'teste_ldap\', c=\'principal\', f=\'index\')\nauth.settings.remember_me_form = False\nauth.settings.registration_requires_verification = False\nauth.settings.registration_requires_approval = False\nauth.settings.actions_disabled = [\'register\']\nauth.settings.expiration = 3600  # seconds\n\n#Mensagens de Erro \nauth.messages.logged_in = \'Bem Vindo\' \nauth.messages.access_denied = \'Acesso negado! Contate o administrador\'\nauth.messages.invalid_username = \'Usuario Inv\xc3\xa1lido \'\nauth.messages.invalid_login = \'Usuario ou Senha Inv\xc3\xa1lidos\'\nauth.messages.invalid_password = \'Senha Inv\xc3\xa1lida\'\nauth.messages.login_button = "Entrar"\nauth.messages.label_email = \'E-mail\'\nauth.messages.label_password = \'Password\'\n'
p7
sS'snapshot'
p8
(dp9
S'exception'
p10
(dp11
S'__hash__'
p12
S"<method-wrapper '__hash__' of exceptions.NameError object>"
p13
sS'__setattr__'
p14
S"<method-wrapper '__setattr__' of exceptions.NameError object>"
p15
sS'__reduce_ex__'
p16
S'<built-in method __reduce_ex__ of exceptions.NameError object>'
p17
sS'__getslice__'
p18
S"<method-wrapper '__getslice__' of exceptions.NameError object>"
p19
sS'__getitem__'
p20
S"<method-wrapper '__getitem__' of exceptions.NameError object>"
p21
sS'__setstate__'
p22
S'<built-in method __setstate__ of exceptions.NameError object>'
p23
sS'args'
p24
S'("name \'auth\' is not defined",)'
p25
sS'__reduce__'
p26
S'<built-in method __reduce__ of exceptions.NameError object>'
p27
sS'__str__'
p28
S"<method-wrapper '__str__' of exceptions.NameError object>"
p29
sS'__format__'
p30
S'<built-in method __format__ of exceptions.NameError object>'
p31
sS'__getattribute__'
p32
S"<method-wrapper '__getattribute__' of exceptions.NameError object>"
p33
sS'__class__'
p34
S"<type 'exceptions.NameError'>"
p35
sS'__unicode__'
p36
S'<built-in method __unicode__ of exceptions.NameError object>'
p37
sS'__delattr__'
p38
S"<method-wrapper '__delattr__' of exceptions.NameError object>"
p39
sS'__subclasshook__'
p40
S'<built-in method __subclasshook__ of type object>'
p41
sS'__repr__'
p42
S"<method-wrapper '__repr__' of exceptions.NameError object>"
p43
sS'__dict__'
p44
S'{}'
p45
sS'__sizeof__'
p46
S'<built-in method __sizeof__ of exceptions.NameError object>'
p47
sS'__doc__'
p48
S"'Name not found globally.'"
p49
sS'__init__'
p50
S"<method-wrapper '__init__' of exceptions.NameError object>"
p51
sS'__new__'
p52
S'<built-in method __new__ of type object>'
p53
ssS'evalue'
p54
S"name 'auth' is not defined"
p55
sS'request'
p56
cgluon.html
XML_unpickle
p57
(S's\x9d`\x00\x00<div><table><tr><td style="font-weight:bold;vertical-align:top;">ajax</td><td style="vertical-align:top;">:</td><td><div>False</div></td></tr><tr><td style="font-weight:bold;vertical-align:top;">application</td><td style="vertical-align:top;">:</td><td><div>teste_ldap</div></td></tr><tr><td style="font-weight:bold;vertical-align:top;">args</td><td style="vertical-align:top;">:</td><td><div><table></table></div></td></tr><tr><td style="font-weight:bold;vertical-align:top;">cid</td><td style="vertical-align:top;">:</td><td><div>None</div></td></tr><tr><td style="font-weight:bold;vertical-align:top;">client</td><td style="vertical-align:top;">:</td><td><div>127.0.0.1</div></td></tr><tr><td style="font-weight:bold;vertical-align:top;">controller</td><td style="vertical-align:top;">:</td><td><div>principal</div></td></tr><tr><td style="font-weight:bold;vertical-align:top;">cookies</td><td style="vertical-align:top;">:</td><td><div><table><tr><td style="font-weight:bold;vertical-align:top;">PPA_ID</td><td style="vertical-align:top;">:</td><td><div>l09q4r5d404haor5nn5letl8u1<table><tr><td style="font-weight:bold;vertical-align:top;">comment</td><td style="vertical-align:top;">:</td><td><div></div></td></tr><tr><td style="font-weight:bold;vertical-align:top;">domain</td><td style="vertical-align:top;">:</td><td><div></div></td></tr><tr><td style="font-weight:bold;vertical-align:top;">expires</td><td style="vertical-align:top;">:</td><td><div></div></td></tr><tr><td style="font-weight:bold;vertical-align:top;">httponly</td><td style="vertical-align:top;">:</td><td><div></div></td></tr><tr><td style="font-weight:bold;vertical-align:top;">max-age</td><td style="vertical-align:top;">:</td><td><div></div></td></tr><tr><td style="font-weight:bold;vertical-align:top;">path</td><td style="vertical-align:top;">:</td><td><div></div></td></tr><tr><td style="font-weight:bold;vertical-align:top;">secure</td><td style="vertical-align:top;">:</td><td><div></div></td></tr><tr><td style="font-weight:bold;vertical-align:top;">version</td><td style="vertical-align:top;">:</td><td><div></div></td></tr></table></div></td></tr><tr><td style="font-weight:bold;vertical-align:top;">session_id_admin</td><td style="vertical-align:top;">:</td><td><div>127.0.0.1-68b1d93c-e053-4e86-a19c-88908d3d562c<table><tr><td style="font-weight:bold;vertical-align:top;">comment</td><td style="vertical-align:top;">:</td><td><div></div></td></tr><tr><td style="font-weight:bold;vertical-align:top;">domain</td><td style="vertical-align:top;">:</td><td><div></div></td></tr><tr><td style="font-weight:bold;vertical-align:top;">expires</td><td style="vertical-align:top;">:</td><td><div></div></td></tr><tr><td style="font-weight:bold;vertical-align:top;">httponly</td><td style="vertical-align:top;">:</td><td><div></div></td></tr><tr><td style="font-weight:bold;vertical-align:top;">max-age</td><td style="vertical-align:top;">:</td><td><div></div></td></tr><tr><td style="font-weight:bold;vertical-align:top;">path</td><td style="vertical-align:top;">:</td><td><div></div></td></tr><tr><td style="font-weight:bold;vertical-align:top;">secure</td><td style="vertical-align:top;">:</td><td><div></div></td></tr><tr><td style="font-weight:bold;vertical-align:top;">version</td><td style="vertical-align:top;">:</td><td><div></div></td></tr></table></div></td></tr><tr><td style="font-weight:bold;vertical-align:top;">session_id_teste_ldap</td><td style="vertical-align:top;">:</td><td><div>127.0.0.1-7afc5bd2-3a10-4de5-8411-cd2d631dad58<table><tr><td style="font-weight:bold;vertical-align:top;">comment</td><td style="vertical-align:top;">:</td><td><div></div></td></tr><tr><td style="font-weight:bold;vertical-align:top;">domain</td><td style="vertical-align:top;">:</td><td><div></div></td></tr><tr><td style="font-weight:bold;vertical-align:top;">expires</td><td style="vertical-align:top;">:</td><td><div></div></td></tr><tr><td style="font-weight:bold;vertical-align:top;">httponly</td><td style="vertical-align:top;">:</td><td><div></div></td></tr><tr><td style="font-weight:bold;vertical-align:top;">max-age</td><td style="vertical-align:top;">:</td><td><div></div></td></tr><tr><td style="font-weight:bold;vertical-align:top;">path</td><td style="vertical-align:top;">:</td><td><div></div></td></tr><tr><td style="font-weight:bold;vertical-align:top;">secure</td><td style="vertical-align:top;">:</td><td><div></div></td></tr><tr><td style="font-weight:bold;vertical-align:top;">version</td><td style="vertical-align:top;">:</td><td><div></div></td></tr></table></div></td></tr><tr><td style="font-weight:bold;vertical-align:top;">webfx-tree-cookie-persistence</td><td style="vertical-align:top;">:</td><td><div>wfxt-6+wfxt-4+wfxt-14+wfxt-16+wfxt-18+wfxt-20<table><tr><td style="font-weight:bold;vertical-align:top;">comment</td><td style="vertical-align:top;">:</td><td><div></div></td></tr><tr><td style="font-weight:bold;vertical-align:top;">domain</td><td style="vertical-align:top;">:</td><td><div></div></td></tr><tr><td style="font-weight:bold;vertical-align:top;">expires</td><td style="vertical-align:top;">:</td><td><div></div></td></tr><tr><td style="font-weight:bold;vertical-align:top;">httponly</td><td style="vertical-align:top;">:</td><td><div></div></td></tr><tr><td style="font-weight:bold;vertical-align:top;">max-age</td><td style="vertical-align:top;">:</td><td><div></div></td></tr><tr><td style="font-weight:bold;vertical-align:top;">path</td><td style="vertical-align:top;">:</td><td><div></div></td></tr><tr><td style="font-weight:bold;vertical-align:top;">secure</td><td style="vertical-align:top;">:</td><td><div></div></td></tr><tr><td style="font-weight:bold;vertical-align:top;">version</td><td style="vertical-align:top;">:</td><td><div></div></td></tr></table></div></td></tr></table></div></td></tr><tr><td style="font-weight:bold;vertical-align:top;">env</td><td style="vertical-align:top;">:</td><td><div><table><tr><td style="font-weight:bold;vertical-align:top;">HTTP_ACCEPT</td><td style="vertical-align:top;">:</td><td><div>text/html,application/xhtml+xml,application/xml;q=0.9,image/webp,*/*;q=0.8</div></td></tr><tr><td style="font-weight:bold;vertical-align:top;">HTTP_ACCEPT_ENCODING</td><td style="vertical-align:top;">:</td><td><div>gzip, deflate, sdch</div></td></tr><tr><td style="font-weight:bold;vertical-align:top;">HTTP_ACCEPT_LANGUAGE</td><td style="vertical-align:top;">:</td><td><div>pt-BR,pt;q=0.8,en-US;q=0.6,en;q=0.4</div></td></tr><tr><td style="font-weight:bold;vertical-align:top;">HTTP_CACHE_CONTROL</td><td style="vertical-align:top;">:</td><td><div>max-age=0</div></td></tr><tr><td style="font-weight:bold;vertical-align:top;">HTTP_CONNECTION</td><td style="vertical-align:top;">:</td><td><div>keep-alive</div></td></tr><tr><td style="font-weight:bold;vertical-align:top;">HTTP_COOKIE</td><td style="vertical-align:top;">:</td><td><div>session_id_admin=127.0.0.1-68b1d93c-e053-4e86-a19c-88908d3d562c; PPA_ID=l09q4r5d404haor5nn5letl8u1; session_id_teste_ldap=127.0.0.1-7afc5bd2-3a10-4de5-8411-cd2d631dad58; webfx-tree-cookie-persistence=wfxt-6+wfxt-4+wfxt-14+wfxt-16+wfxt-18+wfxt-20</div></td></tr><tr><td style="font-weight:bold;vertical-align:top;">HTTP_HOST</td><td style="vertical-align:top;">:</td><td><div>localhost:8000</div></td></tr><tr><td style="font-weight:bold;vertical-align:top;">HTTP_USER_AGENT</td><td style="vertical-align:top;">:</td><td><div>Mozilla/5.0 (X11; Linux x86_64) AppleWebKit/537.36 (KHTML, like Gecko) Chrome/42.0.2311.90 Safari/537.36</div></td></tr><tr><td style="font-weight:bold;vertical-align:top;">PATH_INFO</td><td style="vertical-align:top;">:</td><td><div>/teste_ldap/principal/login</div></td></tr><tr><td style="font-weight:bold;vertical-align:top;">QUERY_STRING</td><td style="vertical-align:top;">:</td><td><div></div></td></tr><tr><td style="font-weight:bold;vertical-align:top;">REMOTE_ADDR</td><td style="vertical-align:top;">:</td><td><div>127.0.0.1</div></td></tr><tr><td style="font-weight:bold;vertical-align:top;">REMOTE_PORT</td><td style="vertical-align:top;">:</td><td><div>58665</div></td></tr><tr><td style="font-weight:bold;vertical-align:top;">REQUEST_METHOD</td><td style="vertical-align:top;">:</td><td><div>GET</div></td></tr><tr><td style="font-weight:bold;vertical-align:top;">SCRIPT_NAME</td><td style="vertical-align:top;">:</td><td><div></div></td></tr><tr><td style="font-weight:bold;vertical-align:top;">SERVER_NAME</td><td style="vertical-align:top;">:</td><td><div>matheus-pc</div></td></tr><tr><td style="font-weight:bold;vertical-align:top;">SERVER_PORT</td><td style="vertical-align:top;">:</td><td><div>8000</div></td></tr><tr><td style="font-weight:bold;vertical-align:top;">SERVER_PROTOCOL</td><td style="vertical-align:top;">:</td><td><div>HTTP/1.1</div></td></tr><tr><td style="font-weight:bold;vertical-align:top;">SERVER_SOFTWARE</td><td style="vertical-align:top;">:</td><td><div>Rocket 1.2.6</div></td></tr><tr><td style="font-weight:bold;vertical-align:top;">app_folders</td><td style="vertical-align:top;">:</td><td><div>set([&#x27;/var/www/web2py/applications/login_ldap/&#x27;, &#x27;/var/www/web2py/applications/teste_ldap/&#x27;, &#x27;/var/www/web2py/applications/admin/&#x27;])</div></td></tr><tr><td style="font-weight:bold;vertical-align:top;">applications_parent</td><td style="vertical-align:top;">:</td><td><div>/var/www/web2py</div></td></tr><tr><td style="font-weight:bold;vertical-align:top;">cmd_args</td><td style="vertical-align:top;">:</td><td><div><table></table></div></td></tr><tr><td style="font-weight:bold;vertical-align:top;">cmd_options</td><td style="vertical-align:top;">:</td><td><div>&lt;Values at 0x7fcf973b9950: {&#x27;verbose&#x27;: False, &#x27;ip&#x27;: &#x27;127.0.0.1&#x27;, &#x27;debuglevel&#x27;: 30, &#x27;with_scheduler&#x27;: False, &#x27;ips&#x27;: [&#x27;192.168.100.100&#x27;], &#x27;shutdown_timeout&#x27;: 5, &#x27;taskbar&#x27;: False, &#x27;with_coverage&#x27;: False, &#x27;scheduler_groups&#x27;: None, &#x27;port&#x27;: 8000, &#x27;maxthreads&#x27;: None, &#x27;softcron&#x27;: False, &#x27;server_name&#x27;: &#x27;matheus-pc&#x27;, &#x27;bpython&#x27;: False, &#x27;nogui&#x27;: False, &#x27;pid_filename&#x27;: &#x27;httpserver.pid&#x27;, &#x27;print_errors&#x27;: False, &#x27;extcron&#x27;: False, &#x27;runcron&#x27;: False, &#x27;run_system_tests&#x27;: False, &#x27;test&#x27;: None, &#x27;folder&#x27;: &#x27;/var/www/web2py&#x27;, &#x27;config&#x27;: &#x27;&#x27;, &#x27;minthreads&#x27;: None, &#x27;shell&#x27;: None, &#x27;run&#x27;: &#x27;&#x27;, &#x27;log_filename&#x27;: &#x27;httpserver.log&#x27;, &#x27;profiler_dir&#x27;: None, &#x27;args&#x27;: [&#x27;&#x27;], &#x27;socket_timeout&#x27;: 5, &#x27;ssl_ca_certificate&#x27;: None, &#x27;scheduler&#x27;: None, &#x27;interfaces&#x27;: None, &#x27;ssl_private_key&#x27;: &#x27;&#x27;, &#x27;gae&#x27;: None, &#x27;password&#x27;: &#x27;123&#x27;, &#x27;request_queue_size&#x27;: 5, &#x27;ssl_certificate&#x27;: &#x27;&#x27;, &#x27;cronjob&#x27;: False, &#x27;numthreads&#x27;: None, &#x27;quiet&#x27;: False, &#x27;import_models&#x27;: False, &#x27;timeout&#x27;: 10, &#x27;plain&#x27;: False, &#x27;nobanner&#x27;: False}&gt;</div></td></tr><tr><td style="font-weight:bold;vertical-align:top;">db_sessions</td><td style="vertical-align:top;">:</td><td><div>set([])</div></td></tr><tr><td style="font-weight:bold;vertical-align:top;">debugging</td><td style="vertical-align:top;">:</td><td><div>False</div></td></tr><tr><td style="font-weight:bold;vertical-align:top;">gluon_parent</td><td style="vertical-align:top;">:</td><td><div>/var/www/web2py</div></td></tr><tr><td style="font-weight:bold;vertical-align:top;">http_accept</td><td style="vertical-align:top;">:</td><td><div>text/html,application/xhtml+xml,application/xml;q=0.9,image/webp,*/*;q=0.8</div></td></tr><tr><td style="font-weight:bold;vertical-align:top;">http_accept_encoding</td><td style="vertical-align:top;">:</td><td><div>gzip, deflate, sdch</div></td></tr><tr><td style="font-weight:bold;vertical-align:top;">http_accept_language</td><td style="vertical-align:top;">:</td><td><div>pt-BR,pt;q=0.8,en-US;q=0.6,en;q=0.4</div></td></tr><tr><td style="font-weight:bold;vertical-align:top;">http_cache_control</td><td style="vertical-align:top;">:</td><td><div>max-age=0</div></td></tr><tr><td style="font-weight:bold;vertical-align:top;">http_connection</td><td style="vertical-align:top;">:</td><td><div>keep-alive</div></td></tr><tr><td style="font-weight:bold;vertical-align:top;">http_cookie</td><td style="vertical-align:top;">:</td><td><div>session_id_admin=127.0.0.1-68b1d93c-e053-4e86-a19c-88908d3d562c; PPA_ID=l09q4r5d404haor5nn5letl8u1; session_id_teste_ldap=127.0.0.1-7afc5bd2-3a10-4de5-8411-cd2d631dad58; webfx-tree-cookie-persistence=wfxt-6+wfxt-4+wfxt-14+wfxt-16+wfxt-18+wfxt-20</div></td></tr><tr><td style="font-weight:bold;vertical-align:top;">http_host</td><td style="vertical-align:top;">:</td><td><div>localhost:8000</div></td></tr><tr><td style="font-weight:bold;vertical-align:top;">http_user_agent</td><td style="vertical-align:top;">:</td><td><div>Mozilla/5.0 (X11; Linux x86_64) AppleWebKit/537.36 (KHTML, like Gecko) Chrome/42.0.2311.90 Safari/537.36</div></td></tr><tr><td style="font-weight:bold;vertical-align:top;">is_jython</td><td style="vertical-align:top;">:</td><td><div>False</div></td></tr><tr><td style="font-weight:bold;vertical-align:top;">is_pypy</td><td style="vertical-align:top;">:</td><td><div>False</div></td></tr><tr><td style="font-weight:bold;vertical-align:top;">is_source</td><td style="vertical-align:top;">:</td><td><div>True</div></td></tr><tr><td style="font-weight:bold;vertical-align:top;">local_hosts</td><td style="vertical-align:top;">:</td><td><div><table><tr><td><div>matheus-pc.forip.com.br</div></td></tr><tr><td><div>::ffff:127.0.0.1</div></td></tr><tr><td><div>::1</div></td></tr><tr><td><div>matheus-pc</div></td></tr><tr><td><div>192.168.100.100</div></td></tr><tr><td><div>127.0.0.1</div></td></tr></table></div></td></tr><tr><td style="font-weight:bold;vertical-align:top;">path_info</td><td style="vertical-align:top;">:</td><td><div>/teste_ldap/principal/login</div></td></tr><tr><td style="font-weight:bold;vertical-align:top;">query_string</td><td style="vertical-align:top;">:</td><td><div></div></td></tr><tr><td style="font-weight:bold;vertical-align:top;">remote_addr</td><td style="vertical-align:top;">:</td><td><div>127.0.0.1</div></td></tr><tr><td style="font-weight:bold;vertical-align:top;">remote_port</td><td style="vertical-align:top;">:</td><td><div>58665</div></td></tr><tr><td style="font-weight:bold;vertical-align:top;">request_method</td><td style="vertical-align:top;">:</td><td><div>GET</div></td></tr><tr><td style="font-weight:bold;vertical-align:top;">request_uri</td><td style="vertical-align:top;">:</td><td><div>/teste_ldap/principal/login</div></td></tr><tr><td style="font-weight:bold;vertical-align:top;">script_name</td><td style="vertical-align:top;">:</td><td><div></div></td></tr><tr><td style="font-weight:bold;vertical-align:top;">server_name</td><td style="vertical-align:top;">:</td><td><div>matheus-pc</div></td></tr><tr><td style="font-weight:bold;vertical-align:top;">server_port</td><td style="vertical-align:top;">:</td><td><div>8000</div></td></tr><tr><td style="font-weight:bold;vertical-align:top;">server_protocol</td><td style="vertical-align:top;">:</td><td><div>HTTP/1.1</div></td></tr><tr><td style="font-weight:bold;vertical-align:top;">server_software</td><td style="vertical-align:top;">:</td><td><div>Rocket 1.2.6</div></td></tr><tr><td style="font-weight:bold;vertical-align:top;">web2py_path</td><td style="vertical-align:top;">:</td><td><div>/var/www/web2py</div></td></tr><tr><td style="font-weight:bold;vertical-align:top;">web2py_version</td><td style="vertical-align:top;">:</td><td><div>2.10.4-stable+timestamp.2015.04.26.15.11.54</div></td></tr><tr><td style="font-weight:bold;vertical-align:top;">wsgi.errors</td><td style="vertical-align:top;">:</td><td><div>&lt;open file &#x27;&lt;stderr&gt;&#x27;, mode &#x27;w&#x27; at 0x7fcf9e12d1e0&gt;</div></td></tr><tr><td style="font-weight:bold;vertical-align:top;">wsgi.file_wrapper</td><td style="vertical-align:top;">:</td><td><div>&lt;class wsgiref.util.FileWrapper at 0x7fcf99dd1e88&gt;</div></td></tr><tr><td style="font-weight:bold;vertical-align:top;">wsgi.input</td><td style="vertical-align:top;">:</td><td><div>&lt;socket._fileobject object at 0x7fcf5e1f3ed0&gt;</div></td></tr><tr><td style="font-weight:bold;vertical-align:top;">wsgi.multiprocess</td><td style="vertical-align:top;">:</td><td><div>False</div></td></tr><tr><td style="font-weight:bold;vertical-align:top;">wsgi.multithread</td><td style="vertical-align:top;">:</td><td><div>True</div></td></tr><tr><td style="font-weight:bold;vertical-align:top;">wsgi.run_once</td><td style="vertical-align:top;">:</td><td><div>False</div></td></tr><tr><td style="font-weight:bold;vertical-align:top;">wsgi.url_scheme</td><td style="vertical-align:top;">:</td><td><div>http</div></td></tr><tr><td style="font-weight:bold;vertical-align:top;">wsgi.version</td><td style="vertical-align:top;">:</td><td><div><table><tr><td><div>1</div></td></tr><tr><td><div>0</div></td></tr></table></div></td></tr><tr><td style="font-weight:bold;vertical-align:top;">wsgi_errors</td><td style="vertical-align:top;">:</td><td><div>&lt;open file &#x27;&lt;stderr&gt;&#x27;, mode &#x27;w&#x27; at 0x7fcf9e12d1e0&gt;</div></td></tr><tr><td style="font-weight:bold;vertical-align:top;">wsgi_file_wrapper</td><td style="vertical-align:top;">:</td><td><div>&lt;class wsgiref.util.FileWrapper at 0x7fcf99dd1e88&gt;</div></td></tr><tr><td style="font-weight:bold;vertical-align:top;">wsgi_input</td><td style="vertical-align:top;">:</td><td><div>&lt;socket._fileobject object at 0x7fcf5e1f3ed0&gt;</div></td></tr><tr><td style="font-weight:bold;vertical-align:top;">wsgi_multiprocess</td><td style="vertical-align:top;">:</td><td><div>False</div></td></tr><tr><td style="font-weight:bold;vertical-align:top;">wsgi_multithread</td><td style="vertical-align:top;">:</td><td><div>True</div></td></tr><tr><td style="font-weight:bold;vertical-align:top;">wsgi_run_once</td><td style="vertical-align:top;">:</td><td><div>False</div></td></tr><tr><td style="font-weight:bold;vertical-align:top;">wsgi_url_scheme</td><td style="vertical-align:top;">:</td><td><div>http</div></td></tr><tr><td style="font-weight:bold;vertical-align:top;">wsgi_version</td><td style="vertical-align:top;">:</td><td><div><table><tr><td><div>1</div></td></tr><tr><td><div>0</div></td></tr></table></div></td></tr></table></div></td></tr><tr><td style="font-weight:bold;vertical-align:top;">extension</td><td style="vertical-align:top;">:</td><td><div>html</div></td></tr><tr><td style="font-weight:bold;vertical-align:top;">folder</td><td style="vertical-align:top;">:</td><td><div>/var/www/web2py/applications/teste_ldap/</div></td></tr><tr><td style="font-weight:bold;vertical-align:top;">function</td><td style="vertical-align:top;">:</td><td><div>login</div></td></tr><tr><td style="font-weight:bold;vertical-align:top;">global_settings</td><td style="vertical-align:top;">:</td><td><div><table><tr><td style="font-weight:bold;vertical-align:top;">app_folders</td><td style="vertical-align:top;">:</td><td><div>set([&#x27;/var/www/web2py/applications/login_ldap/&#x27;, &#x27;/var/www/web2py/applications/teste_ldap/&#x27;, &#x27;/var/www/web2py/applications/admin/&#x27;])</div></td></tr><tr><td style="font-weight:bold;vertical-align:top;">applications_parent</td><td style="vertical-align:top;">:</td><td><div>/var/www/web2py</div></td></tr><tr><td style="font-weight:bold;vertical-align:top;">cmd_args</td><td style="vertical-align:top;">:</td><td><div><table></table></div></td></tr><tr><td style="font-weight:bold;vertical-align:top;">cmd_options</td><td style="vertical-align:top;">:</td><td><div>&lt;Values at 0x7fcf973b9950: {&#x27;verbose&#x27;: False, &#x27;ip&#x27;: &#x27;127.0.0.1&#x27;, &#x27;debuglevel&#x27;: 30, &#x27;with_scheduler&#x27;: False, &#x27;ips&#x27;: [&#x27;192.168.100.100&#x27;], &#x27;shutdown_timeout&#x27;: 5, &#x27;taskbar&#x27;: False, &#x27;with_coverage&#x27;: False, &#x27;scheduler_groups&#x27;: None, &#x27;port&#x27;: 8000, &#x27;maxthreads&#x27;: None, &#x27;softcron&#x27;: False, &#x27;server_name&#x27;: &#x27;matheus-pc&#x27;, &#x27;bpython&#x27;: False, &#x27;nogui&#x27;: False, &#x27;pid_filename&#x27;: &#x27;httpserver.pid&#x27;, &#x27;print_errors&#x27;: False, &#x27;extcron&#x27;: False, &#x27;runcron&#x27;: False, &#x27;run_system_tests&#x27;: False, &#x27;test&#x27;: None, &#x27;folder&#x27;: &#x27;/var/www/web2py&#x27;, &#x27;config&#x27;: &#x27;&#x27;, &#x27;minthreads&#x27;: None, &#x27;shell&#x27;: None, &#x27;run&#x27;: &#x27;&#x27;, &#x27;log_filename&#x27;: &#x27;httpserver.log&#x27;, &#x27;profiler_dir&#x27;: None, &#x27;args&#x27;: [&#x27;&#x27;], &#x27;socket_timeout&#x27;: 5, &#x27;ssl_ca_certificate&#x27;: None, &#x27;scheduler&#x27;: None, &#x27;interfaces&#x27;: None, &#x27;ssl_private_key&#x27;: &#x27;&#x27;, &#x27;gae&#x27;: None, &#x27;password&#x27;: &#x27;123&#x27;, &#x27;request_queue_size&#x27;: 5, &#x27;ssl_certificate&#x27;: &#x27;&#x27;, &#x27;cronjob&#x27;: False, &#x27;numthreads&#x27;: None, &#x27;quiet&#x27;: False, &#x27;import_models&#x27;: False, &#x27;timeout&#x27;: 10, &#x27;plain&#x27;: False, &#x27;nobanner&#x27;: False}&gt;</div></td></tr><tr><td style="font-weight:bold;vertical-align:top;">db_sessions</td><td style="vertical-align:top;">:</td><td><div>set([])</div></td></tr><tr><td style="font-weight:bold;vertical-align:top;">debugging</td><td style="vertical-align:top;">:</td><td><div>False</div></td></tr><tr><td style="font-weight:bold;vertical-align:top;">gluon_parent</td><td style="vertical-align:top;">:</td><td><div>/var/www/web2py</div></td></tr><tr><td style="font-weight:bold;vertical-align:top;">is_jython</td><td style="vertical-align:top;">:</td><td><div>False</div></td></tr><tr><td style="font-weight:bold;vertical-align:top;">is_pypy</td><td style="vertical-align:top;">:</td><td><div>False</div></td></tr><tr><td style="font-weight:bold;vertical-align:top;">is_source</td><td style="vertical-align:top;">:</td><td><div>True</div></td></tr><tr><td style="font-weight:bold;vertical-align:top;">local_hosts</td><td style="vertical-align:top;">:</td><td><div><table><tr><td><div>matheus-pc.forip.com.br</div></td></tr><tr><td><div>::ffff:127.0.0.1</div></td></tr><tr><td><div>::1</div></td></tr><tr><td><div>matheus-pc</div></td></tr><tr><td><div>192.168.100.100</div></td></tr><tr><td><div>127.0.0.1</div></td></tr></table></div></td></tr><tr><td style="font-weight:bold;vertical-align:top;">web2py_version</td><td style="vertical-align:top;">:</td><td><div>2.10.4-stable+timestamp.2015.04.26.15.11.54</div></td></tr></table></div></td></tr><tr><td style="font-weight:bold;vertical-align:top;">is_https</td><td style="vertical-align:top;">:</td><td><div>False</div></td></tr><tr><td style="font-weight:bold;vertical-align:top;">is_local</td><td style="vertical-align:top;">:</td><td><div>True</div></td></tr><tr><td style="font-weight:bold;vertical-align:top;">is_restful</td><td style="vertical-align:top;">:</td><td><div>False</div></td></tr><tr><td style="font-weight:bold;vertical-align:top;">is_sheduler</td><td style="vertical-align:top;">:</td><td><div>None</div></td></tr><tr><td style="font-weight:bold;vertical-align:top;">is_shell</td><td style="vertical-align:top;">:</td><td><div>None</div></td></tr><tr><td style="font-weight:bold;vertical-align:top;">now</td><td style="vertical-align:top;">:</td><td><div>datetime.datetime(2015, 5, 6, 15, 9, 17, 352519)</div></td></tr><tr><td style="font-weight:bold;vertical-align:top;">raw_args</td><td style="vertical-align:top;">:</td><td><div></div></td></tr><tr><td style="font-weight:bold;vertical-align:top;">raw_extension</td><td style="vertical-align:top;">:</td><td><div>None</div></td></tr><tr><td style="font-weight:bold;vertical-align:top;">url</td><td style="vertical-align:top;">:</td><td><div>/teste_ldap/principal/login</div></td></tr><tr><td style="font-weight:bold;vertical-align:top;">utcnow</td><td style="vertical-align:top;">:</td><td><div>datetime.datetime(2015, 5, 6, 18, 9, 17, 352547)</div></td></tr><tr><td style="font-weight:bold;vertical-align:top;">uuid</td><td style="vertical-align:top;">:</td><td><div>teste_ldap/127.0.0.1.2015-05-06.15-09-17.915e91fd-d9aa-426c-ac75-b1e7a7359e77</div></td></tr><tr><td style="font-weight:bold;vertical-align:top;">wsgi</td><td style="vertical-align:top;">:</td><td><div>&lt;gluon.main.LazyWSGI object at 0x7fcf5eae9610&gt;</div></td></tr></table></div>'
tRp58
sS'frames'
p59
(lp60
(dp61
S'file'
p62
S'/var/www/web2py/gluon/restricted.py'
p63
sS'dump'
p64
(dp65
S'environment'
p66
S"{'A': <class 'gluon.html.A'>, 'ANY_OF': <class 'gluon.validators.ANY_OF'>, 'ASSIGNJS': <function ASSIGNJS>, 'Auth': <class 'gluon.tools.Auth'>, 'B': <class 'gluon.html.B'>, 'BEAUTIFY': <class 'gluon.html.BEAUTIFY'>, 'BODY': <class 'gluon.html.BODY'>, 'BR': <class 'gluon.html.BR'>, 'BUTTON': <class 'gluon.html.BUTTON'>, 'CAT': <class 'gluon.html.CAT'>, ...}"
p67
sS'ccode'
p68
S'<code object <module> at 0x7fcf5eb20930, file "/...pplications/teste_ldap/models/config.py", line 2>'
p69
ssS'lnum'
p70
I227
sS'lines'
p71
(dp72
I224
S'            ccode = code'
p73
sI225
S'        else:'
p74
sI226
S'            ccode = compile2(code, layer)'
p75
sI227
S'        exec ccode in environment'
p76
sI228
S'    except HTTP:'
p77
sI229
S'        raise'
p78
sI230
S'    except RestrictedError:'
p79
sI231
S'        # do not encapsulate (obfuscate) the original RestrictedError'
p80
sI222
S'    try:'
p81
sI223
S'        if isinstance(code, types.CodeType):'
p82
ssS'call'
p83
S'(code="# -*- coding: utf-8 -*-\\nfrom gluon.storage impor...-mail\'\\nauth.messages.label_password = \'Password\'\\n", environment={\'A\': <class \'gluon.html.A\'>, \'ANY_OF\': <class \'gluon.validators.ANY_OF\'>, \'ASSIGNJS\': <function ASSIGNJS>, \'Auth\': <class \'gluon.tools.Auth\'>, \'B\': <class \'gluon.html.B\'>, \'BEAUTIFY\': <class \'gluon.html.BEAUTIFY\'>, \'BODY\': <class \'gluon.html.BODY\'>, \'BR\': <class \'gluon.html.BR\'>, \'BUTTON\': <class \'gluon.html.BUTTON\'>, \'CAT\': <class \'gluon.html.CAT\'>, ...}, layer=\'/var/www/web2py/applications/teste_ldap/models/config.py\')'
p84
sS'func'
p85
S'restricted'
p86
sa(dp87
g62
S'/var/www/web2py/applications/teste_ldap/models/config.py'
p88
sg64
(dp89
S'base_dn'
p90
S'undefined'
p91
ssg70
I26
sg71
(dp92
I21
S'    db = db,'
p93
sI22
S"    group_name_attrib = 'cn',"
p94
sI23
S"    group_member_attrib = 'member',"
p95
sI24
S"    group_filterstr = 'objectClass=Group',"
p96
sI25
S"    server='<server>',"
p97
sI26
S"    base_dn='DC=sambadominio,DC=sambadominio.local')]"
p98
sI27
S'#Configura\xc3\xa7\xc3\xa3o Auth'
p99
sI28
S'auth = Auth(db, controller="principal",function="login")'
p100
sI29
S'auth.settings.formstyle = "divs"'
p101
sI30
S"auth.settings.login_next = URL(a='teste_ldap', c='principal', f='index')"
p102
ssg83
S'()'
p103
sg85
S'<module>'
p104
sasS'pyver'
p105
S'Python 2.7.6: /usr/bin/python (prefix: /usr)'
p106
sS'session'
p107
g57
(S's\x1a\x00\x00\x00<div><table></table></div>'
tRp108
sS'etype'
p109
S"<type 'exceptions.NameError'>"
p110
sS'date'
p111
S'Wed May  6 15:09:17 2015'
p112
sS'response'
p113
g57
(S's\xfe\x17\x00\x00<div><table><tr><td style="font-weight:bold;vertical-align:top;">body</td><td style="vertical-align:top;">:</td><td><div>&lt;cStringIO.StringO object at 0x7fcf5b471298&gt;</div></td></tr><tr><td style="font-weight:bold;vertical-align:top;">cookies</td><td style="vertical-align:top;">:</td><td><div><table><tr><td style="font-weight:bold;vertical-align:top;">session_id_teste_ldap</td><td style="vertical-align:top;">:</td><td><div>127.0.0.1-7afc5bd2-3a10-4de5-8411-cd2d631dad58<table><tr><td style="font-weight:bold;vertical-align:top;">comment</td><td style="vertical-align:top;">:</td><td><div></div></td></tr><tr><td style="font-weight:bold;vertical-align:top;">domain</td><td style="vertical-align:top;">:</td><td><div></div></td></tr><tr><td style="font-weight:bold;vertical-align:top;">expires</td><td style="vertical-align:top;">:</td><td><div></div></td></tr><tr><td style="font-weight:bold;vertical-align:top;">httponly</td><td style="vertical-align:top;">:</td><td><div></div></td></tr><tr><td style="font-weight:bold;vertical-align:top;">max-age</td><td style="vertical-align:top;">:</td><td><div></div></td></tr><tr><td style="font-weight:bold;vertical-align:top;">path</td><td style="vertical-align:top;">:</td><td><div>/</div></td></tr><tr><td style="font-weight:bold;vertical-align:top;">secure</td><td style="vertical-align:top;">:</td><td><div></div></td></tr><tr><td style="font-weight:bold;vertical-align:top;">version</td><td style="vertical-align:top;">:</td><td><div></div></td></tr></table></div></td></tr></table></div></td></tr><tr><td style="font-weight:bold;vertical-align:top;">delimiters</td><td style="vertical-align:top;">:</td><td><div><table><tr><td><div>{{</div></td></tr><tr><td><div>}}</div></td></tr></table></div></td></tr><tr><td style="font-weight:bold;vertical-align:top;">files</td><td style="vertical-align:top;">:</td><td><div><table></table></div></td></tr><tr><td style="font-weight:bold;vertical-align:top;">flash</td><td style="vertical-align:top;">:</td><td><div></div></td></tr><tr><td style="font-weight:bold;vertical-align:top;">form_label_separator</td><td style="vertical-align:top;">:</td><td><div>: </div></td></tr><tr><td style="font-weight:bold;vertical-align:top;">formstyle</td><td style="vertical-align:top;">:</td><td><div>table3cols</div></td></tr><tr><td style="font-weight:bold;vertical-align:top;">generic_patterns</td><td style="vertical-align:top;">:</td><td><div><table><tr><td><div>*</div></td></tr></table></div></td></tr><tr><td style="font-weight:bold;vertical-align:top;">headers</td><td style="vertical-align:top;">:</td><td><div><table><tr><td style="font-weight:bold;vertical-align:top;">X-Powered-By</td><td style="vertical-align:top;">:</td><td><div>web2py</div></td></tr></table></div></td></tr><tr><td style="font-weight:bold;vertical-align:top;">menu</td><td style="vertical-align:top;">:</td><td><div><table></table></div></td></tr><tr><td style="font-weight:bold;vertical-align:top;">meta</td><td style="vertical-align:top;">:</td><td><div><table></table></div></td></tr><tr><td style="font-weight:bold;vertical-align:top;">models_to_run</td><td style="vertical-align:top;">:</td><td><div><table><tr><td><div>^\\w+\\.py$</div></td></tr><tr><td><div>^principal/\\w+\\.py$</div></td></tr><tr><td><div>^principal/login/\\w+\\.py$</div></td></tr></table></div></td></tr><tr><td style="font-weight:bold;vertical-align:top;">postprocessing</td><td style="vertical-align:top;">:</td><td><div><table></table></div></td></tr><tr><td style="font-weight:bold;vertical-align:top;">session_client</td><td style="vertical-align:top;">:</td><td><div>127.0.0.1</div></td></tr><tr><td style="font-weight:bold;vertical-align:top;">session_cookie_compression_level</td><td style="vertical-align:top;">:</td><td><div>None</div></td></tr><tr><td style="font-weight:bold;vertical-align:top;">session_cookie_expires</td><td style="vertical-align:top;">:</td><td><div>None</div></td></tr><tr><td style="font-weight:bold;vertical-align:top;">session_cookie_key</td><td style="vertical-align:top;">:</td><td><div>None</div></td></tr><tr><td style="font-weight:bold;vertical-align:top;">session_data_name</td><td style="vertical-align:top;">:</td><td><div>session_data_teste_ldap</div></td></tr><tr><td style="font-weight:bold;vertical-align:top;">session_file</td><td style="vertical-align:top;">:</td><td><div>&lt;open file &#x27;/var/www/web2py/applications/teste_ldap/sessions/10f/0e7/127.0.0.1-7afc5bd2-3a10-4de5-8411-cd2d631dad58&#x27;, mode &#x27;rb+&#x27; at 0x7fcf5e994930&gt;</div></td></tr><tr><td style="font-weight:bold;vertical-align:top;">session_filename</td><td style="vertical-align:top;">:</td><td><div>/var/www/web2py/applications/teste_ldap/sessions/127.0.0.1-7afc5bd2-3a10-4de5-8411-cd2d631dad58</div></td></tr><tr><td style="font-weight:bold;vertical-align:top;">session_hash</td><td style="vertical-align:top;">:</td><td><div>4fdf90bf85a64fc03402aee5da2a803a</div></td></tr><tr><td style="font-weight:bold;vertical-align:top;">session_id</td><td style="vertical-align:top;">:</td><td><div>127.0.0.1-7afc5bd2-3a10-4de5-8411-cd2d631dad58</div></td></tr><tr><td style="font-weight:bold;vertical-align:top;">session_id_name</td><td style="vertical-align:top;">:</td><td><div>session_id_teste_ldap</div></td></tr><tr><td style="font-weight:bold;vertical-align:top;">session_locked</td><td style="vertical-align:top;">:</td><td><div>True</div></td></tr><tr><td style="font-weight:bold;vertical-align:top;">session_masterapp</td><td style="vertical-align:top;">:</td><td><div>teste_ldap</div></td></tr><tr><td style="font-weight:bold;vertical-align:top;">session_new</td><td style="vertical-align:top;">:</td><td><div>False</div></td></tr><tr><td style="font-weight:bold;vertical-align:top;">session_storage_type</td><td style="vertical-align:top;">:</td><td><div>file</div></td></tr><tr><td style="font-weight:bold;vertical-align:top;">status</td><td style="vertical-align:top;">:</td><td><div>200</div></td></tr><tr><td style="font-weight:bold;vertical-align:top;">view</td><td style="vertical-align:top;">:</td><td><div>principal/login.html</div></td></tr></table></div>'
tRp114
sS'locals'
p115
(dp116
S'OBJECT'
p117
S"<class 'gluon.html.OBJECT'>"
p118
sS'SQLDB'
p119
S"<class 'pydal.base.DAL'>"
p120
sg107
S"<Storage {'_formkey[login]': ['f9365d42-1a05-4f53-a6fc-6abd68e22e2a']}>"
p121
sS'LINK'
p122
S"<class 'gluon.html.LINK'>"
p123
sS'BR'
p124
S"<class 'gluon.html.BR'>"
p125
sS'local_import'
p126
S'<function <lambda>>'
p127
sS'OPTGROUP'
p128
S"<class 'gluon.html.OPTGROUP'>"
p129
sS'__package__'
p130
S'None'
p131
sS'PRE'
p132
S"<class 'gluon.html.PRE'>"
p133
sS'IS_INT_IN_RANGE'
p134
S"<class 'gluon.validators.IS_INT_IN_RANGE'>"
p135
sS'IS_LOWER'
p136
S"<class 'gluon.validators.IS_LOWER'>"
p137
sS'IS_STRONG'
p138
S"<class 'gluon.validators.IS_STRONG'>"
p139
sS'cache'
p140
S'<gluon.cache.Cache object>'
p141
sS'IS_IN_DB'
p142
S"<class 'gluon.validators.IS_IN_DB'>"
p143
sS'TAG'
p144
S'<gluon.html.__TAG__ object>'
p145
sS'SQLField'
p146
S"<class 'pydal.objects.Field'>"
p147
sS'BODY'
p148
S"<class 'gluon.html.BODY'>"
p149
sS'IS_DATE_IN_RANGE'
p150
S"<class 'gluon.validators.IS_DATE_IN_RANGE'>"
p151
sS'TH'
p152
S"<class 'gluon.html.TH'>"
p153
sS'URL'
p154
S'<function URL>'
p155
sS'__file__'
p156
S"'/var/www/web2py/applications/teste_ldap/models/config.py'"
p157
sS'db'
p158
S'<DAL uri="postgres:pg8000:******@localhost/teste_ldap">'
p159
sS'P'
S"<class 'gluon.html.P'>"
p160
sS'TFOOT'
p161
S"<class 'gluon.html.TFOOT'>"
p162
sS'XHTML'
p163
S"<class 'gluon.html.XHTML'>"
p164
sS'ON'
p165
S'True'
p166
sS'OL'
p167
S"<class 'gluon.html.OL'>"
p168
sS'TEXTAREA'
p169
S"<class 'gluon.html.TEXTAREA'>"
p170
sS'MENU'
p171
S"<class 'gluon.html.MENU'>"
p172
sS'ldap_auth'
p173
S'<function ldap_auth>'
p174
sS'LOAD'
p175
S'<function LOAD>'
p176
sS'CODE'
p177
S"<class 'gluon.html.CODE'>"
p178
sS'HTTP'
p179
S"<class 'gluon.http.HTTP'>"
p180
sS'HR'
p181
S"<class 'gluon.html.HR'>"
p182
sS'IS_DATETIME'
p183
S"<class 'gluon.validators.IS_DATETIME'>"
p184
sS'Storage'
p185
S"<class 'gluon.storage.Storage'>"
p186
sS'HEAD'
p187
S"<class 'gluon.html.HEAD'>"
p188
sS'LABEL'
p189
S"<class 'gluon.html.LABEL'>"
p190
sS'CLEANUP'
p191
S"<class 'gluon.validators.CLEANUP'>"
p192
sS'SELECT'
p193
S"<class 'gluon.html.SELECT'>"
p194
sS'CENTER'
p195
S"<class 'gluon.html.CENTER'>"
p196
sS'Auth'
p197
S"<class 'gluon.tools.Auth'>"
p198
sS'__builtins__'
p199
S"{'ArithmeticError': <type 'exceptions.ArithmeticError'>, 'AssertionError': <type 'exceptions.AssertionError'>, 'AttributeError': <type 'exceptions.AttributeError'>, 'BaseException': <type 'exceptions.BaseException'>, 'BufferError': <type 'exceptions.BufferError'>, 'BytesWarning': <type 'exceptions.BytesWarning'>, 'DeprecationWarning': <type 'exceptions.DeprecationWarning'>, 'EOFError': <type 'exceptions.EOFError'>, 'Ellipsis': Ellipsis, 'EnvironmentError': <type 'exceptions.EnvironmentError'>, ...}"
p200
sS'HTML'
p201
S"<class 'gluon.html.HTML'>"
p202
sS'SQLFORM'
p203
S"<class 'gluon.sqlhtml.SQLFORM'>"
p204
sS'EM'
p205
S"<class 'gluon.html.EM'>"
p206
sS'redirect'
p207
S'<function redirect>'
p208
sS'FIELDSET'
p209
S"<class 'gluon.html.FIELDSET'>"
p210
sS'IS_EQUAL_TO'
p211
S"<class 'gluon.validators.IS_EQUAL_TO'>"
p212
sS'embed64'
p213
S'<function embed64>'
p214
sS'IS_LIST_OF'
p215
S"<class 'gluon.validators.IS_LIST_OF'>"
p216
sS'__name__'
p217
S"'__restricted__'"
p218
sS'EMBED'
p219
S"<class 'gluon.html.EMBED'>"
p220
sS'FORM'
p221
S"<class 'gluon.html.FORM'>"
p222
sS'H2'
p223
S"<class 'gluon.html.H2'>"
p224
sS'H3'
p225
S"<class 'gluon.html.H3'>"
p226
sS'BUTTON'
p227
S"<class 'gluon.html.BUTTON'>"
p228
sS'H1'
p229
S"<class 'gluon.html.H1'>"
p230
sS'H6'
p231
S"<class 'gluon.html.H6'>"
p232
sS'H4'
p233
S"<class 'gluon.html.H4'>"
p234
sS'H5'
p235
S"<class 'gluon.html.H5'>"
p236
sS'UL'
p237
S"<class 'gluon.html.UL'>"
p238
sS'IS_UPPER'
p239
S"<class 'gluon.validators.IS_UPPER'>"
p240
sS'xmlescape'
p241
S'<function xmlescape>'
p242
sS'IS_TIME'
p243
S"<class 'gluon.validators.IS_TIME'>"
p244
sS'OPTION'
p245
S"<class 'gluon.html.OPTION'>"
p246
sS'TITLE'
p247
S"<class 'gluon.html.TITLE'>"
p248
sS'CRYPT'
p249
S"<class 'gluon.validators.CRYPT'>"
p250
sS'IS_EMPTY_OR'
p251
S"<class 'gluon.validators.IS_EMPTY_OR'>"
p252
sS'MARKMIN'
p253
S"<class 'gluon.html.MARKMIN'>"
p254
sS'INPUT'
p255
S"<class 'gluon.html.INPUT'>"
p256
sS'STRONG'
p257
S"<class 'gluon.html.STRONG'>"
p258
sS'COL'
p259
S"<class 'gluon.html.COL'>"
p260
sS'SCRIPT'
p261
S"<class 'gluon.html.SCRIPT'>"
p262
sS'TABLE'
p263
S"<class 'gluon.html.TABLE'>"
p264
sS'IS_IPV4'
p265
S"<class 'gluon.validators.IS_IPV4'>"
p266
sS'IS_LENGTH'
p267
S"<class 'gluon.validators.IS_LENGTH'>"
p268
sS'IS_IPV6'
p269
S"<class 'gluon.validators.IS_IPV6'>"
p270
sS'XML'
p271
S"<class 'gluon.html.XML'>"
p272
sS'B'
S"<class 'gluon.html.B'>"
p273
sS'IMG'
p274
S"<class 'gluon.html.IMG'>"
p275
sS'SQLTABLE'
p276
S"<class 'gluon.sqlhtml.SQLTABLE'>"
p277
sS'IS_MATCH'
p278
S"<class 'gluon.validators.IS_MATCH'>"
p279
sS'IS_ALPHANUMERIC'
p280
S"<class 'gluon.validators.IS_ALPHANUMERIC'>"
p281
sS'SPAN'
p282
S"<class 'gluon.html.SPAN'>"
p283
sS'IS_JSON'
p284
S"<class 'gluon.validators.IS_JSON'>"
p285
sS'IS_IPADDRESS'
p286
S"<class 'gluon.validators.IS_IPADDRESS'>"
p287
sS'IS_SLUG'
p288
S"<class 'gluon.validators.IS_SLUG'>"
p289
sS'BEAUTIFY'
p290
S"<class 'gluon.html.BEAUTIFY'>"
p291
sS'META'
p292
S"<class 'gluon.html.META'>"
p293
sS'IS_URL'
p294
S"<class 'gluon.validators.IS_URL'>"
p295
sS'IS_DATE'
p296
S"<class 'gluon.validators.IS_DATE'>"
p297
sS'IS_EMAIL'
p298
S"<class 'gluon.validators.IS_EMAIL'>"
p299
sS'IS_NOT_EMPTY'
p300
S"<class 'gluon.validators.IS_NOT_EMPTY'>"
p301
sS'IS_FLOAT_IN_RANGE'
p302
S"<class 'gluon.validators.IS_FLOAT_IN_RANGE'>"
p303
sS'TBODY'
p304
S"<class 'gluon.html.TBODY'>"
p305
sS'CAT'
p306
S"<class 'gluon.html.CAT'>"
p307
sS'Field'
p308
S"<class 'pydal.objects.Field'>"
p309
sS'IS_LIST_OF_EMAILS'
p310
S"<class 'gluon.validators.IS_LIST_OF_EMAILS'>"
p311
sS'DIV'
p312
S"<class 'gluon.html.DIV'>"
p313
sS'LEGEND'
p314
S"<class 'gluon.html.LEGEND'>"
p315
sS'COLGROUP'
p316
S"<class 'gluon.html.COLGROUP'>"
p317
sS'DAL'
p318
S"<class 'pydal.base.DAL'>"
p319
sS'ASSIGNJS'
p320
S'<function ASSIGNJS>'
p321
sS'TR'
p322
S"<class 'gluon.html.TR'>"
p323
sS'LI'
p324
S"<class 'gluon.html.LI'>"
p325
sS'IFRAME'
p326
S"<class 'gluon.html.IFRAME'>"
p327
sS'TD'
p328
S"<class 'gluon.html.TD'>"
p329
sS'config'
p330
S"<Storage {'db': <Storage {'uri': 'postgres:pg8000://matheus:123456@localhost/teste_ldap'}>}>"
p331
sS'A'
S"<class 'gluon.html.A'>"
p332
sS'STYLE'
p333
S"<class 'gluon.html.STYLE'>"
p334
sS'IS_DATETIME_IN_RANGE'
p335
S"<class 'gluon.validators.IS_DATETIME_IN_RANGE'>"
p336
sS'IS_IMAGE'
p337
S"<class 'gluon.validators.IS_IMAGE'>"
p338
sS'I'
S"<class 'gluon.html.I'>"
p339
sS'IS_NOT_IN_DB'
p340
S"<class 'gluon.validators.IS_NOT_IN_DB'>"
p341
sg113
S"<Storage {'body': <cStringIO.StringO object at 0...0x7fcf5eb3d230>, 'view': 'principal/login.html'}>"
p342
sS'THEAD'
p343
S"<class 'gluon.html.THEAD'>"
p344
sS'ANY_OF'
p345
S"<class 'gluon.validators.ANY_OF'>"
p346
sS'IS_NULL_OR'
p347
S"<class 'gluon.validators.IS_EMPTY_OR'>"
p348
sg56
S"<Storage {'_vars': None, 'function': 'login', 'c...er': '/var/www/web2py/applications/teste_ldap/'}>"
p349
sS'IS_EXPR'
p350
S"<class 'gluon.validators.IS_EXPR'>"
p351
sS'IS_IN_SET'
p352
S"<class 'gluon.validators.IS_IN_SET'>"
p353
sS'IS_UPLOAD_FILENAME'
p354
S"<class 'gluon.validators.IS_UPLOAD_FILENAME'>"
p355
sS'IS_DECIMAL_IN_RANGE'
p356
S"<class 'gluon.validators.IS_DECIMAL_IN_RANGE'>"
p357
sS'TT'
p358
S"<class 'gluon.html.TT'>"
p359
sS'T'
S'<gluon.languages.translator object>'
p360
sssS'traceback'
p361
S'Traceback (most recent call last):\n  File "/var/www/web2py/gluon/restricted.py", line 227, in restricted\n    exec ccode in environment\n  File "/var/www/web2py/applications/teste_ldap/models/config.py", line 26, in <module>\n    base_dn=\'DC=sambadominio,DC=sambadominio.local\')]\nNameError: name \'auth\' is not defined\n'
p362
s.