(dp1
S'output'
p2
S"<type 'exceptions.NameError'> name 'Auth' is not defined"
p3
sS'layer'
p4
S'/var/www/web2py/applications/teste_ldap/models/config.py'
p5
sS'code'
p6
S'# -*- coding: utf-8 -*-\nfrom gluon.storage import Storage\nimport ldap\nconfig = Storage(\n    db=Storage(),\n)\n\n# Conex\xc3\xa3o com o Banco de Dados\nif request.is_local:\n    config.db.uri = "postgres:pg8000://matheus:123456@localhost/teste_ldap"\nelse:\n    config.db.uri = "postgres:pg8000://forip:yma2578k@127.0.0.1/teste_ldap"\ndb = DAL(**config.db)\n\n# Importa\xc3\xa7\xc3\xb5es\nfrom gluon.contrib.login_methods.ldap_auth import ldap_auth\n# Login com LDAP\n\n# Configura\xc3\xa7\xc3\xa3o Auth\nauth = Auth(db, controller="principal",function="login")\nauth.settings.create_user_groups=False\nauth.settings.actions_disabled=[\'register\',\'change_password\',\'request_reset_password\',\'retrieve_username\',\'profile\']\nauth.settings.remember_me_form = False\nauth.settings.login_next = URL(a=\'teste_ldap\', c=\'principal\', f=\'index\')\nauth.settings.login_methods = [ldap_auth(mode=\'ad\',\n   server=\'192.168.100.235\',\n   base_dn=\'dc=forip,dc=local\')]\n\nauth.messages.logged_in = \'Bem Vindo\'\nauth.messages.access_denied = \'Acesso negado! Contate o administrador\'\nauth.messages.invalid_username = \'Usuario Inv\xc3\xa1lido \'\nauth.messages.invalid_login = \'Usuario ou Senha Inv\xc3\xa1lidos\'\nauth.messages.invalid_password = \'Senha Inv\xc3\xa1lida\'\nauth.messages.login_button = "Entrar"\nauth.messages.label_email = \'E-mail\'\nauth.messages.label_password = \'Password\''
p7
sS'snapshot'
p8
(dp9
S'exception'
p10
(dp11
S'__hash__'
p12
S"<method-wrapper '__hash__' of exceptions.NameError object>"
p13
sS'__setattr__'
p14
S"<method-wrapper '__setattr__' of exceptions.NameError object>"
p15
sS'__reduce_ex__'
p16
S'<built-in method __reduce_ex__ of exceptions.NameError object>'
p17
sS'__getslice__'
p18
S"<method-wrapper '__getslice__' of exceptions.NameError object>"
p19
sS'__getitem__'
p20
S"<method-wrapper '__getitem__' of exceptions.NameError object>"
p21
sS'__setstate__'
p22
S'<built-in method __setstate__ of exceptions.NameError object>'
p23
sS'args'
p24
S'("name \'Auth\' is not defined",)'
p25
sS'__reduce__'
p26
S'<built-in method __reduce__ of exceptions.NameError object>'
p27
sS'__str__'
p28
S"<method-wrapper '__str__' of exceptions.NameError object>"
p29
sS'__format__'
p30
S'<built-in method __format__ of exceptions.NameError object>'
p31
sS'__getattribute__'
p32
S"<method-wrapper '__getattribute__' of exceptions.NameError object>"
p33
sS'__class__'
p34
S"<type 'exceptions.NameError'>"
p35
sS'__unicode__'
p36
S'<built-in method __unicode__ of exceptions.NameError object>'
p37
sS'__delattr__'
p38
S"<method-wrapper '__delattr__' of exceptions.NameError object>"
p39
sS'__subclasshook__'
p40
S'<built-in method __subclasshook__ of type object>'
p41
sS'__repr__'
p42
S"<method-wrapper '__repr__' of exceptions.NameError object>"
p43
sS'__dict__'
p44
S'{}'
p45
sS'__sizeof__'
p46
S'<built-in method __sizeof__ of exceptions.NameError object>'
p47
sS'__doc__'
p48
S"'Name not found globally.'"
p49
sS'__init__'
p50
S"<method-wrapper '__init__' of exceptions.NameError object>"
p51
sS'__new__'
p52
S'<built-in method __new__ of type object>'
p53
ssS'evalue'
p54
S"name 'Auth' is not defined"
p55
sS'request'
p56
cgluon.html
XML_unpickle
p57
(S's\x1d^\x00\x00<div><table><tr><td style="font-weight:bold;vertical-align:top;">ajax</td><td style="vertical-align:top;">:</td><td><div>False</div></td></tr><tr><td style="font-weight:bold;vertical-align:top;">application</td><td style="vertical-align:top;">:</td><td><div>teste_ldap</div></td></tr><tr><td style="font-weight:bold;vertical-align:top;">args</td><td style="vertical-align:top;">:</td><td><div><table><tr><td><div>login</div></td></tr></table></div></td></tr><tr><td style="font-weight:bold;vertical-align:top;">cid</td><td style="vertical-align:top;">:</td><td><div>None</div></td></tr><tr><td style="font-weight:bold;vertical-align:top;">client</td><td style="vertical-align:top;">:</td><td><div>127.0.0.1</div></td></tr><tr><td style="font-weight:bold;vertical-align:top;">controller</td><td style="vertical-align:top;">:</td><td><div>principal</div></td></tr><tr><td style="font-weight:bold;vertical-align:top;">cookies</td><td style="vertical-align:top;">:</td><td><div><table><tr><td style="font-weight:bold;vertical-align:top;">session_id_admin</td><td style="vertical-align:top;">:</td><td><div>127.0.0.1-09587138-635b-4ce9-9b31-bd050739537a<table><tr><td style="font-weight:bold;vertical-align:top;">comment</td><td style="vertical-align:top;">:</td><td><div></div></td></tr><tr><td style="font-weight:bold;vertical-align:top;">domain</td><td style="vertical-align:top;">:</td><td><div></div></td></tr><tr><td style="font-weight:bold;vertical-align:top;">expires</td><td style="vertical-align:top;">:</td><td><div></div></td></tr><tr><td style="font-weight:bold;vertical-align:top;">httponly</td><td style="vertical-align:top;">:</td><td><div></div></td></tr><tr><td style="font-weight:bold;vertical-align:top;">max-age</td><td style="vertical-align:top;">:</td><td><div></div></td></tr><tr><td style="font-weight:bold;vertical-align:top;">path</td><td style="vertical-align:top;">:</td><td><div></div></td></tr><tr><td style="font-weight:bold;vertical-align:top;">secure</td><td style="vertical-align:top;">:</td><td><div></div></td></tr><tr><td style="font-weight:bold;vertical-align:top;">version</td><td style="vertical-align:top;">:</td><td><div></div></td></tr></table></div></td></tr><tr><td style="font-weight:bold;vertical-align:top;">session_id_teste_ldap</td><td style="vertical-align:top;">:</td><td><div>127.0.0.1-a6aa1dda-8484-40a7-9408-0da5ecadc908<table><tr><td style="font-weight:bold;vertical-align:top;">comment</td><td style="vertical-align:top;">:</td><td><div></div></td></tr><tr><td style="font-weight:bold;vertical-align:top;">domain</td><td style="vertical-align:top;">:</td><td><div></div></td></tr><tr><td style="font-weight:bold;vertical-align:top;">expires</td><td style="vertical-align:top;">:</td><td><div></div></td></tr><tr><td style="font-weight:bold;vertical-align:top;">httponly</td><td style="vertical-align:top;">:</td><td><div></div></td></tr><tr><td style="font-weight:bold;vertical-align:top;">max-age</td><td style="vertical-align:top;">:</td><td><div></div></td></tr><tr><td style="font-weight:bold;vertical-align:top;">path</td><td style="vertical-align:top;">:</td><td><div></div></td></tr><tr><td style="font-weight:bold;vertical-align:top;">secure</td><td style="vertical-align:top;">:</td><td><div></div></td></tr><tr><td style="font-weight:bold;vertical-align:top;">version</td><td style="vertical-align:top;">:</td><td><div></div></td></tr></table></div></td></tr></table></div></td></tr><tr><td style="font-weight:bold;vertical-align:top;">env</td><td style="vertical-align:top;">:</td><td><div><table><tr><td style="font-weight:bold;vertical-align:top;">CONTENT_LENGTH</td><td style="vertical-align:top;">:</td><td><div>601</div></td></tr><tr><td style="font-weight:bold;vertical-align:top;">CONTENT_TYPE</td><td style="vertical-align:top;">:</td><td><div>multipart/form-data; boundary=----WebKitFormBoundaryr5jBNAFgNr2OR0S8</div></td></tr><tr><td style="font-weight:bold;vertical-align:top;">HTTP_ACCEPT</td><td style="vertical-align:top;">:</td><td><div>text/html,application/xhtml+xml,application/xml;q=0.9,image/webp,*/*;q=0.8</div></td></tr><tr><td style="font-weight:bold;vertical-align:top;">HTTP_ACCEPT_ENCODING</td><td style="vertical-align:top;">:</td><td><div>gzip, deflate</div></td></tr><tr><td style="font-weight:bold;vertical-align:top;">HTTP_ACCEPT_LANGUAGE</td><td style="vertical-align:top;">:</td><td><div>pt-BR,pt;q=0.8,en-US;q=0.6,en;q=0.4</div></td></tr><tr><td style="font-weight:bold;vertical-align:top;">HTTP_CACHE_CONTROL</td><td style="vertical-align:top;">:</td><td><div>max-age=0</div></td></tr><tr><td style="font-weight:bold;vertical-align:top;">HTTP_CONNECTION</td><td style="vertical-align:top;">:</td><td><div>keep-alive</div></td></tr><tr><td style="font-weight:bold;vertical-align:top;">HTTP_CONTENT_LENGTH</td><td style="vertical-align:top;">:</td><td><div>601</div></td></tr><tr><td style="font-weight:bold;vertical-align:top;">HTTP_CONTENT_TYPE</td><td style="vertical-align:top;">:</td><td><div>multipart/form-data; boundary=----WebKitFormBoundaryr5jBNAFgNr2OR0S8</div></td></tr><tr><td style="font-weight:bold;vertical-align:top;">HTTP_COOKIE</td><td style="vertical-align:top;">:</td><td><div>session_id_admin=127.0.0.1-09587138-635b-4ce9-9b31-bd050739537a; session_id_teste_ldap=127.0.0.1-a6aa1dda-8484-40a7-9408-0da5ecadc908</div></td></tr><tr><td style="font-weight:bold;vertical-align:top;">HTTP_HOST</td><td style="vertical-align:top;">:</td><td><div>localhost:8000</div></td></tr><tr><td style="font-weight:bold;vertical-align:top;">HTTP_ORIGIN</td><td style="vertical-align:top;">:</td><td><div>http://localhost:8000</div></td></tr><tr><td style="font-weight:bold;vertical-align:top;">HTTP_REFERER</td><td style="vertical-align:top;">:</td><td><div>http://localhost:8000/teste_ldap/principal/login/login</div></td></tr><tr><td style="font-weight:bold;vertical-align:top;">HTTP_USER_AGENT</td><td style="vertical-align:top;">:</td><td><div>Mozilla/5.0 (X11; Linux x86_64) AppleWebKit/537.36 (KHTML, like Gecko) Chrome/42.0.2311.90 Safari/537.36</div></td></tr><tr><td style="font-weight:bold;vertical-align:top;">PATH_INFO</td><td style="vertical-align:top;">:</td><td><div>/teste_ldap/principal/login/login</div></td></tr><tr><td style="font-weight:bold;vertical-align:top;">QUERY_STRING</td><td style="vertical-align:top;">:</td><td><div></div></td></tr><tr><td style="font-weight:bold;vertical-align:top;">REMOTE_ADDR</td><td style="vertical-align:top;">:</td><td><div>127.0.0.1</div></td></tr><tr><td style="font-weight:bold;vertical-align:top;">REMOTE_PORT</td><td style="vertical-align:top;">:</td><td><div>47133</div></td></tr><tr><td style="font-weight:bold;vertical-align:top;">REQUEST_METHOD</td><td style="vertical-align:top;">:</td><td><div>POST</div></td></tr><tr><td style="font-weight:bold;vertical-align:top;">SCRIPT_NAME</td><td style="vertical-align:top;">:</td><td><div></div></td></tr><tr><td style="font-weight:bold;vertical-align:top;">SERVER_NAME</td><td style="vertical-align:top;">:</td><td><div>matheus-pc</div></td></tr><tr><td style="font-weight:bold;vertical-align:top;">SERVER_PORT</td><td style="vertical-align:top;">:</td><td><div>8000</div></td></tr><tr><td style="font-weight:bold;vertical-align:top;">SERVER_PROTOCOL</td><td style="vertical-align:top;">:</td><td><div>HTTP/1.1</div></td></tr><tr><td style="font-weight:bold;vertical-align:top;">SERVER_SOFTWARE</td><td style="vertical-align:top;">:</td><td><div>Rocket 1.2.6</div></td></tr><tr><td style="font-weight:bold;vertical-align:top;">app_folders</td><td style="vertical-align:top;">:</td><td><div>set([&#x27;/var/www/web2py/applications/teste_ldap/&#x27;, &#x27;/var/www/web2py/applications/admin/&#x27;])</div></td></tr><tr><td style="font-weight:bold;vertical-align:top;">applications_parent</td><td style="vertical-align:top;">:</td><td><div>/var/www/web2py</div></td></tr><tr><td style="font-weight:bold;vertical-align:top;">cmd_args</td><td style="vertical-align:top;">:</td><td><div><table></table></div></td></tr><tr><td style="font-weight:bold;vertical-align:top;">cmd_options</td><td style="vertical-align:top;">:</td><td><div>&lt;Values at 0x7f79fd4e3560: {&#x27;verbose&#x27;: False, &#x27;ip&#x27;: &#x27;127.0.0.1&#x27;, &#x27;debuglevel&#x27;: 30, &#x27;with_scheduler&#x27;: False, &#x27;ips&#x27;: [&#x27;192.168.100.100&#x27;], &#x27;shutdown_timeout&#x27;: 5, &#x27;taskbar&#x27;: False, &#x27;with_coverage&#x27;: False, &#x27;scheduler_groups&#x27;: None, &#x27;port&#x27;: 8000, &#x27;maxthreads&#x27;: None, &#x27;softcron&#x27;: False, &#x27;server_name&#x27;: &#x27;matheus-pc&#x27;, &#x27;bpython&#x27;: False, &#x27;nogui&#x27;: False, &#x27;pid_filename&#x27;: &#x27;httpserver.pid&#x27;, &#x27;print_errors&#x27;: False, &#x27;extcron&#x27;: False, &#x27;runcron&#x27;: False, &#x27;run_system_tests&#x27;: False, &#x27;test&#x27;: None, &#x27;folder&#x27;: &#x27;/var/www/web2py&#x27;, &#x27;config&#x27;: &#x27;&#x27;, &#x27;minthreads&#x27;: None, &#x27;shell&#x27;: None, &#x27;run&#x27;: &#x27;&#x27;, &#x27;log_filename&#x27;: &#x27;httpserver.log&#x27;, &#x27;profiler_dir&#x27;: None, &#x27;args&#x27;: [&#x27;&#x27;], &#x27;socket_timeout&#x27;: 5, &#x27;ssl_ca_certificate&#x27;: None, &#x27;scheduler&#x27;: None, &#x27;interfaces&#x27;: None, &#x27;ssl_private_key&#x27;: &#x27;&#x27;, &#x27;gae&#x27;: None, &#x27;password&#x27;: &#x27;123&#x27;, &#x27;request_queue_size&#x27;: 5, &#x27;ssl_certificate&#x27;: &#x27;&#x27;, &#x27;cronjob&#x27;: False, &#x27;numthreads&#x27;: None, &#x27;quiet&#x27;: False, &#x27;import_models&#x27;: False, &#x27;timeout&#x27;: 10, &#x27;plain&#x27;: False, &#x27;nobanner&#x27;: False}&gt;</div></td></tr><tr><td style="font-weight:bold;vertical-align:top;">content_length</td><td style="vertical-align:top;">:</td><td><div>601</div></td></tr><tr><td style="font-weight:bold;vertical-align:top;">content_type</td><td style="vertical-align:top;">:</td><td><div>multipart/form-data; boundary=----WebKitFormBoundaryr5jBNAFgNr2OR0S8</div></td></tr><tr><td style="font-weight:bold;vertical-align:top;">db_sessions</td><td style="vertical-align:top;">:</td><td><div>set([])</div></td></tr><tr><td style="font-weight:bold;vertical-align:top;">debugging</td><td style="vertical-align:top;">:</td><td><div>False</div></td></tr><tr><td style="font-weight:bold;vertical-align:top;">gluon_parent</td><td style="vertical-align:top;">:</td><td><div>/var/www/web2py</div></td></tr><tr><td style="font-weight:bold;vertical-align:top;">http_accept</td><td style="vertical-align:top;">:</td><td><div>text/html,application/xhtml+xml,application/xml;q=0.9,image/webp,*/*;q=0.8</div></td></tr><tr><td style="font-weight:bold;vertical-align:top;">http_accept_encoding</td><td style="vertical-align:top;">:</td><td><div>gzip, deflate</div></td></tr><tr><td style="font-weight:bold;vertical-align:top;">http_accept_language</td><td style="vertical-align:top;">:</td><td><div>pt-BR,pt;q=0.8,en-US;q=0.6,en;q=0.4</div></td></tr><tr><td style="font-weight:bold;vertical-align:top;">http_cache_control</td><td style="vertical-align:top;">:</td><td><div>max-age=0</div></td></tr><tr><td style="font-weight:bold;vertical-align:top;">http_connection</td><td style="vertical-align:top;">:</td><td><div>keep-alive</div></td></tr><tr><td style="font-weight:bold;vertical-align:top;">http_content_length</td><td style="vertical-align:top;">:</td><td><div>601</div></td></tr><tr><td style="font-weight:bold;vertical-align:top;">http_content_type</td><td style="vertical-align:top;">:</td><td><div>multipart/form-data; boundary=----WebKitFormBoundaryr5jBNAFgNr2OR0S8</div></td></tr><tr><td style="font-weight:bold;vertical-align:top;">http_cookie</td><td style="vertical-align:top;">:</td><td><div>session_id_admin=127.0.0.1-09587138-635b-4ce9-9b31-bd050739537a; session_id_teste_ldap=127.0.0.1-a6aa1dda-8484-40a7-9408-0da5ecadc908</div></td></tr><tr><td style="font-weight:bold;vertical-align:top;">http_host</td><td style="vertical-align:top;">:</td><td><div>localhost:8000</div></td></tr><tr><td style="font-weight:bold;vertical-align:top;">http_origin</td><td style="vertical-align:top;">:</td><td><div>http://localhost:8000</div></td></tr><tr><td style="font-weight:bold;vertical-align:top;">http_referer</td><td style="vertical-align:top;">:</td><td><div>http://localhost:8000/teste_ldap/principal/login/login</div></td></tr><tr><td style="font-weight:bold;vertical-align:top;">http_user_agent</td><td style="vertical-align:top;">:</td><td><div>Mozilla/5.0 (X11; Linux x86_64) AppleWebKit/537.36 (KHTML, like Gecko) Chrome/42.0.2311.90 Safari/537.36</div></td></tr><tr><td style="font-weight:bold;vertical-align:top;">is_jython</td><td style="vertical-align:top;">:</td><td><div>False</div></td></tr><tr><td style="font-weight:bold;vertical-align:top;">is_pypy</td><td style="vertical-align:top;">:</td><td><div>False</div></td></tr><tr><td style="font-weight:bold;vertical-align:top;">is_source</td><td style="vertical-align:top;">:</td><td><div>True</div></td></tr><tr><td style="font-weight:bold;vertical-align:top;">local_hosts</td><td style="vertical-align:top;">:</td><td><div><table><tr><td><div>matheus-pc.forip.com.br</div></td></tr><tr><td><div>::ffff:127.0.0.1</div></td></tr><tr><td><div>::1</div></td></tr><tr><td><div>matheus-pc</div></td></tr><tr><td><div>192.168.100.100</div></td></tr><tr><td><div>127.0.0.1</div></td></tr></table></div></td></tr><tr><td style="font-weight:bold;vertical-align:top;">path_info</td><td style="vertical-align:top;">:</td><td><div>/teste_ldap/principal/login/login</div></td></tr><tr><td style="font-weight:bold;vertical-align:top;">query_string</td><td style="vertical-align:top;">:</td><td><div></div></td></tr><tr><td style="font-weight:bold;vertical-align:top;">remote_addr</td><td style="vertical-align:top;">:</td><td><div>127.0.0.1</div></td></tr><tr><td style="font-weight:bold;vertical-align:top;">remote_port</td><td style="vertical-align:top;">:</td><td><div>47133</div></td></tr><tr><td style="font-weight:bold;vertical-align:top;">request_method</td><td style="vertical-align:top;">:</td><td><div>POST</div></td></tr><tr><td style="font-weight:bold;vertical-align:top;">request_uri</td><td style="vertical-align:top;">:</td><td><div>/teste_ldap/principal/login/login</div></td></tr><tr><td style="font-weight:bold;vertical-align:top;">script_name</td><td style="vertical-align:top;">:</td><td><div></div></td></tr><tr><td style="font-weight:bold;vertical-align:top;">server_name</td><td style="vertical-align:top;">:</td><td><div>matheus-pc</div></td></tr><tr><td style="font-weight:bold;vertical-align:top;">server_port</td><td style="vertical-align:top;">:</td><td><div>8000</div></td></tr><tr><td style="font-weight:bold;vertical-align:top;">server_protocol</td><td style="vertical-align:top;">:</td><td><div>HTTP/1.1</div></td></tr><tr><td style="font-weight:bold;vertical-align:top;">server_software</td><td style="vertical-align:top;">:</td><td><div>Rocket 1.2.6</div></td></tr><tr><td style="font-weight:bold;vertical-align:top;">web2py_path</td><td style="vertical-align:top;">:</td><td><div>/var/www/web2py</div></td></tr><tr><td style="font-weight:bold;vertical-align:top;">web2py_version</td><td style="vertical-align:top;">:</td><td><div>2.10.4-stable+timestamp.2015.04.26.15.11.54</div></td></tr><tr><td style="font-weight:bold;vertical-align:top;">wsgi.errors</td><td style="vertical-align:top;">:</td><td><div>&lt;open file &#x27;&lt;stderr&gt;&#x27;, mode &#x27;w&#x27; at 0x7f7a14fde1e0&gt;</div></td></tr><tr><td style="font-weight:bold;vertical-align:top;">wsgi.file_wrapper</td><td style="vertical-align:top;">:</td><td><div>&lt;class wsgiref.util.FileWrapper at 0x7f79fd506600&gt;</div></td></tr><tr><td style="font-weight:bold;vertical-align:top;">wsgi.input</td><td style="vertical-align:top;">:</td><td><div>&lt;socket._fileobject object at 0x7f79c5d449d0&gt;</div></td></tr><tr><td style="font-weight:bold;vertical-align:top;">wsgi.multiprocess</td><td style="vertical-align:top;">:</td><td><div>False</div></td></tr><tr><td style="font-weight:bold;vertical-align:top;">wsgi.multithread</td><td style="vertical-align:top;">:</td><td><div>True</div></td></tr><tr><td style="font-weight:bold;vertical-align:top;">wsgi.run_once</td><td style="vertical-align:top;">:</td><td><div>False</div></td></tr><tr><td style="font-weight:bold;vertical-align:top;">wsgi.url_scheme</td><td style="vertical-align:top;">:</td><td><div>http</div></td></tr><tr><td style="font-weight:bold;vertical-align:top;">wsgi.version</td><td style="vertical-align:top;">:</td><td><div><table><tr><td><div>1</div></td></tr><tr><td><div>0</div></td></tr></table></div></td></tr><tr><td style="font-weight:bold;vertical-align:top;">wsgi_errors</td><td style="vertical-align:top;">:</td><td><div>&lt;open file &#x27;&lt;stderr&gt;&#x27;, mode &#x27;w&#x27; at 0x7f7a14fde1e0&gt;</div></td></tr><tr><td style="font-weight:bold;vertical-align:top;">wsgi_file_wrapper</td><td style="vertical-align:top;">:</td><td><div>&lt;class wsgiref.util.FileWrapper at 0x7f79fd506600&gt;</div></td></tr><tr><td style="font-weight:bold;vertical-align:top;">wsgi_input</td><td style="vertical-align:top;">:</td><td><div>&lt;socket._fileobject object at 0x7f79c5d449d0&gt;</div></td></tr><tr><td style="font-weight:bold;vertical-align:top;">wsgi_multiprocess</td><td style="vertical-align:top;">:</td><td><div>False</div></td></tr><tr><td style="font-weight:bold;vertical-align:top;">wsgi_multithread</td><td style="vertical-align:top;">:</td><td><div>True</div></td></tr><tr><td style="font-weight:bold;vertical-align:top;">wsgi_run_once</td><td style="vertical-align:top;">:</td><td><div>False</div></td></tr><tr><td style="font-weight:bold;vertical-align:top;">wsgi_url_scheme</td><td style="vertical-align:top;">:</td><td><div>http</div></td></tr><tr><td style="font-weight:bold;vertical-align:top;">wsgi_version</td><td style="vertical-align:top;">:</td><td><div><table><tr><td><div>1</div></td></tr><tr><td><div>0</div></td></tr></table></div></td></tr></table></div></td></tr><tr><td style="font-weight:bold;vertical-align:top;">extension</td><td style="vertical-align:top;">:</td><td><div>html</div></td></tr><tr><td style="font-weight:bold;vertical-align:top;">folder</td><td style="vertical-align:top;">:</td><td><div>/var/www/web2py/applications/teste_ldap/</div></td></tr><tr><td style="font-weight:bold;vertical-align:top;">function</td><td style="vertical-align:top;">:</td><td><div>login</div></td></tr><tr><td style="font-weight:bold;vertical-align:top;">global_settings</td><td style="vertical-align:top;">:</td><td><div><table><tr><td style="font-weight:bold;vertical-align:top;">app_folders</td><td style="vertical-align:top;">:</td><td><div>set([&#x27;/var/www/web2py/applications/teste_ldap/&#x27;, &#x27;/var/www/web2py/applications/admin/&#x27;])</div></td></tr><tr><td style="font-weight:bold;vertical-align:top;">applications_parent</td><td style="vertical-align:top;">:</td><td><div>/var/www/web2py</div></td></tr><tr><td style="font-weight:bold;vertical-align:top;">cmd_args</td><td style="vertical-align:top;">:</td><td><div><table></table></div></td></tr><tr><td style="font-weight:bold;vertical-align:top;">cmd_options</td><td style="vertical-align:top;">:</td><td><div>&lt;Values at 0x7f79fd4e3560: {&#x27;verbose&#x27;: False, &#x27;ip&#x27;: &#x27;127.0.0.1&#x27;, &#x27;debuglevel&#x27;: 30, &#x27;with_scheduler&#x27;: False, &#x27;ips&#x27;: [&#x27;192.168.100.100&#x27;], &#x27;shutdown_timeout&#x27;: 5, &#x27;taskbar&#x27;: False, &#x27;with_coverage&#x27;: False, &#x27;scheduler_groups&#x27;: None, &#x27;port&#x27;: 8000, &#x27;maxthreads&#x27;: None, &#x27;softcron&#x27;: False, &#x27;server_name&#x27;: &#x27;matheus-pc&#x27;, &#x27;bpython&#x27;: False, &#x27;nogui&#x27;: False, &#x27;pid_filename&#x27;: &#x27;httpserver.pid&#x27;, &#x27;print_errors&#x27;: False, &#x27;extcron&#x27;: False, &#x27;runcron&#x27;: False, &#x27;run_system_tests&#x27;: False, &#x27;test&#x27;: None, &#x27;folder&#x27;: &#x27;/var/www/web2py&#x27;, &#x27;config&#x27;: &#x27;&#x27;, &#x27;minthreads&#x27;: None, &#x27;shell&#x27;: None, &#x27;run&#x27;: &#x27;&#x27;, &#x27;log_filename&#x27;: &#x27;httpserver.log&#x27;, &#x27;profiler_dir&#x27;: None, &#x27;args&#x27;: [&#x27;&#x27;], &#x27;socket_timeout&#x27;: 5, &#x27;ssl_ca_certificate&#x27;: None, &#x27;scheduler&#x27;: None, &#x27;interfaces&#x27;: None, &#x27;ssl_private_key&#x27;: &#x27;&#x27;, &#x27;gae&#x27;: None, &#x27;password&#x27;: &#x27;123&#x27;, &#x27;request_queue_size&#x27;: 5, &#x27;ssl_certificate&#x27;: &#x27;&#x27;, &#x27;cronjob&#x27;: False, &#x27;numthreads&#x27;: None, &#x27;quiet&#x27;: False, &#x27;import_models&#x27;: False, &#x27;timeout&#x27;: 10, &#x27;plain&#x27;: False, &#x27;nobanner&#x27;: False}&gt;</div></td></tr><tr><td style="font-weight:bold;vertical-align:top;">db_sessions</td><td style="vertical-align:top;">:</td><td><div>set([])</div></td></tr><tr><td style="font-weight:bold;vertical-align:top;">debugging</td><td style="vertical-align:top;">:</td><td><div>False</div></td></tr><tr><td style="font-weight:bold;vertical-align:top;">gluon_parent</td><td style="vertical-align:top;">:</td><td><div>/var/www/web2py</div></td></tr><tr><td style="font-weight:bold;vertical-align:top;">is_jython</td><td style="vertical-align:top;">:</td><td><div>False</div></td></tr><tr><td style="font-weight:bold;vertical-align:top;">is_pypy</td><td style="vertical-align:top;">:</td><td><div>False</div></td></tr><tr><td style="font-weight:bold;vertical-align:top;">is_source</td><td style="vertical-align:top;">:</td><td><div>True</div></td></tr><tr><td style="font-weight:bold;vertical-align:top;">local_hosts</td><td style="vertical-align:top;">:</td><td><div><table><tr><td><div>matheus-pc.forip.com.br</div></td></tr><tr><td><div>::ffff:127.0.0.1</div></td></tr><tr><td><div>::1</div></td></tr><tr><td><div>matheus-pc</div></td></tr><tr><td><div>192.168.100.100</div></td></tr><tr><td><div>127.0.0.1</div></td></tr></table></div></td></tr><tr><td style="font-weight:bold;vertical-align:top;">web2py_version</td><td style="vertical-align:top;">:</td><td><div>2.10.4-stable+timestamp.2015.04.26.15.11.54</div></td></tr></table></div></td></tr><tr><td style="font-weight:bold;vertical-align:top;">is_https</td><td style="vertical-align:top;">:</td><td><div>False</div></td></tr><tr><td style="font-weight:bold;vertical-align:top;">is_local</td><td style="vertical-align:top;">:</td><td><div>True</div></td></tr><tr><td style="font-weight:bold;vertical-align:top;">is_restful</td><td style="vertical-align:top;">:</td><td><div>False</div></td></tr><tr><td style="font-weight:bold;vertical-align:top;">is_sheduler</td><td style="vertical-align:top;">:</td><td><div>None</div></td></tr><tr><td style="font-weight:bold;vertical-align:top;">is_shell</td><td style="vertical-align:top;">:</td><td><div>None</div></td></tr><tr><td style="font-weight:bold;vertical-align:top;">now</td><td style="vertical-align:top;">:</td><td><div>datetime.datetime(2015, 5, 8, 8, 44, 55, 847811)</div></td></tr><tr><td style="font-weight:bold;vertical-align:top;">raw_args</td><td style="vertical-align:top;">:</td><td><div>login</div></td></tr><tr><td style="font-weight:bold;vertical-align:top;">raw_extension</td><td style="vertical-align:top;">:</td><td><div>None</div></td></tr><tr><td style="font-weight:bold;vertical-align:top;">url</td><td style="vertical-align:top;">:</td><td><div>/teste_ldap/principal/login/login</div></td></tr><tr><td style="font-weight:bold;vertical-align:top;">utcnow</td><td style="vertical-align:top;">:</td><td><div>datetime.datetime(2015, 5, 8, 11, 44, 55, 847844)</div></td></tr><tr><td style="font-weight:bold;vertical-align:top;">uuid</td><td style="vertical-align:top;">:</td><td><div>teste_ldap/127.0.0.1.2015-05-08.08-44-55.322c7839-bd8a-45eb-baee-2a5bce6500b9</div></td></tr><tr><td style="font-weight:bold;vertical-align:top;">wsgi</td><td style="vertical-align:top;">:</td><td><div>&lt;gluon.main.LazyWSGI object at 0x7f79c5dc5dd0&gt;</div></td></tr></table></div>'
tRp58
sS'frames'
p59
(lp60
(dp61
S'file'
p62
S'/var/www/web2py/gluon/restricted.py'
p63
sS'dump'
p64
(dp65
S'environment'
p66
S"{'A': <class 'gluon.html.A'>, 'ANY_OF': <class 'gluon.validators.ANY_OF'>, 'ASSIGNJS': <function ASSIGNJS>, 'B': <class 'gluon.html.B'>, 'BEAUTIFY': <class 'gluon.html.BEAUTIFY'>, 'BODY': <class 'gluon.html.BODY'>, 'BR': <class 'gluon.html.BR'>, 'BUTTON': <class 'gluon.html.BUTTON'>, 'CAT': <class 'gluon.html.CAT'>, 'CENTER': <class 'gluon.html.CENTER'>, ...}"
p67
sS'ccode'
p68
S'<code object <module> at 0x7f79c5d44130, file "/...pplications/teste_ldap/models/config.py", line 2>'
p69
ssS'lnum'
p70
I227
sS'lines'
p71
(dp72
I224
S'            ccode = code'
p73
sI225
S'        else:'
p74
sI226
S'            ccode = compile2(code, layer)'
p75
sI227
S'        exec ccode in environment'
p76
sI228
S'    except HTTP:'
p77
sI229
S'        raise'
p78
sI230
S'    except RestrictedError:'
p79
sI231
S'        # do not encapsulate (obfuscate) the original RestrictedError'
p80
sI222
S'    try:'
p81
sI223
S'        if isinstance(code, types.CodeType):'
p82
ssS'call'
p83
S'(code="# -*- coding: utf-8 -*-\\nfrom gluon.storage impor...E-mail\'\\nauth.messages.label_password = \'Password\'", environment={\'A\': <class \'gluon.html.A\'>, \'ANY_OF\': <class \'gluon.validators.ANY_OF\'>, \'ASSIGNJS\': <function ASSIGNJS>, \'B\': <class \'gluon.html.B\'>, \'BEAUTIFY\': <class \'gluon.html.BEAUTIFY\'>, \'BODY\': <class \'gluon.html.BODY\'>, \'BR\': <class \'gluon.html.BR\'>, \'BUTTON\': <class \'gluon.html.BUTTON\'>, \'CAT\': <class \'gluon.html.CAT\'>, \'CENTER\': <class \'gluon.html.CENTER\'>, ...}, layer=\'/var/www/web2py/applications/teste_ldap/models/config.py\')'
p84
sS'func'
p85
S'restricted'
p86
sa(dp87
g62
S'/var/www/web2py/applications/teste_ldap/models/config.py'
p88
sg64
(dp89
S'function'
p90
S'undefined'
p91
sS'controller'
p92
g91
sS'db'
p93
S'<DAL uri="postgres:pg8000:******@localhost/teste_ldap">'
p94
sS'Auth'
p95
g91
sS'auth'
p96
g91
ssg70
I20
sg71
(dp97
I15
S'# Importa\xc3\xa7\xc3\xb5es'
p98
sI16
S'from gluon.contrib.login_methods.ldap_auth import ldap_auth'
p99
sI17
S'# Login com LDAP'
p100
sI18
S''
sI19
S'# Configura\xc3\xa7\xc3\xa3o Auth'
p101
sI20
S'auth = Auth(db, controller="principal",function="login")'
p102
sI21
S'auth.settings.create_user_groups=False'
p103
sI22
S"auth.settings.actions_disabled=['register','change_password','request_reset_password','retrieve_username','profile']"
p104
sI23
S'auth.settings.remember_me_form = False'
p105
sI24
S"auth.settings.login_next = URL(a='teste_ldap', c='principal', f='index')"
p106
ssg83
S'()'
p107
sg85
S'<module>'
p108
sasS'pyver'
p109
S'Python 2.7.6: /usr/bin/python2.7 (prefix: /usr)'
p110
sS'session'
p111
g57
(S's\x1a\x00\x00\x00<div><table></table></div>'
tRp112
sS'etype'
p113
S"<type 'exceptions.NameError'>"
p114
sS'date'
p115
S'Fri May  8 08:44:55 2015'
p116
sS'response'
p117
g57
(S's\xfe\x17\x00\x00<div><table><tr><td style="font-weight:bold;vertical-align:top;">body</td><td style="vertical-align:top;">:</td><td><div>&lt;cStringIO.StringO object at 0x7f79c5da7538&gt;</div></td></tr><tr><td style="font-weight:bold;vertical-align:top;">cookies</td><td style="vertical-align:top;">:</td><td><div><table><tr><td style="font-weight:bold;vertical-align:top;">session_id_teste_ldap</td><td style="vertical-align:top;">:</td><td><div>127.0.0.1-a6aa1dda-8484-40a7-9408-0da5ecadc908<table><tr><td style="font-weight:bold;vertical-align:top;">comment</td><td style="vertical-align:top;">:</td><td><div></div></td></tr><tr><td style="font-weight:bold;vertical-align:top;">domain</td><td style="vertical-align:top;">:</td><td><div></div></td></tr><tr><td style="font-weight:bold;vertical-align:top;">expires</td><td style="vertical-align:top;">:</td><td><div></div></td></tr><tr><td style="font-weight:bold;vertical-align:top;">httponly</td><td style="vertical-align:top;">:</td><td><div></div></td></tr><tr><td style="font-weight:bold;vertical-align:top;">max-age</td><td style="vertical-align:top;">:</td><td><div></div></td></tr><tr><td style="font-weight:bold;vertical-align:top;">path</td><td style="vertical-align:top;">:</td><td><div>/</div></td></tr><tr><td style="font-weight:bold;vertical-align:top;">secure</td><td style="vertical-align:top;">:</td><td><div></div></td></tr><tr><td style="font-weight:bold;vertical-align:top;">version</td><td style="vertical-align:top;">:</td><td><div></div></td></tr></table></div></td></tr></table></div></td></tr><tr><td style="font-weight:bold;vertical-align:top;">delimiters</td><td style="vertical-align:top;">:</td><td><div><table><tr><td><div>{{</div></td></tr><tr><td><div>}}</div></td></tr></table></div></td></tr><tr><td style="font-weight:bold;vertical-align:top;">files</td><td style="vertical-align:top;">:</td><td><div><table></table></div></td></tr><tr><td style="font-weight:bold;vertical-align:top;">flash</td><td style="vertical-align:top;">:</td><td><div></div></td></tr><tr><td style="font-weight:bold;vertical-align:top;">form_label_separator</td><td style="vertical-align:top;">:</td><td><div>: </div></td></tr><tr><td style="font-weight:bold;vertical-align:top;">formstyle</td><td style="vertical-align:top;">:</td><td><div>table3cols</div></td></tr><tr><td style="font-weight:bold;vertical-align:top;">generic_patterns</td><td style="vertical-align:top;">:</td><td><div><table><tr><td><div>*</div></td></tr></table></div></td></tr><tr><td style="font-weight:bold;vertical-align:top;">headers</td><td style="vertical-align:top;">:</td><td><div><table><tr><td style="font-weight:bold;vertical-align:top;">X-Powered-By</td><td style="vertical-align:top;">:</td><td><div>web2py</div></td></tr></table></div></td></tr><tr><td style="font-weight:bold;vertical-align:top;">menu</td><td style="vertical-align:top;">:</td><td><div><table></table></div></td></tr><tr><td style="font-weight:bold;vertical-align:top;">meta</td><td style="vertical-align:top;">:</td><td><div><table></table></div></td></tr><tr><td style="font-weight:bold;vertical-align:top;">models_to_run</td><td style="vertical-align:top;">:</td><td><div><table><tr><td><div>^\\w+\\.py$</div></td></tr><tr><td><div>^principal/\\w+\\.py$</div></td></tr><tr><td><div>^principal/login/\\w+\\.py$</div></td></tr></table></div></td></tr><tr><td style="font-weight:bold;vertical-align:top;">postprocessing</td><td style="vertical-align:top;">:</td><td><div><table></table></div></td></tr><tr><td style="font-weight:bold;vertical-align:top;">session_client</td><td style="vertical-align:top;">:</td><td><div>127.0.0.1</div></td></tr><tr><td style="font-weight:bold;vertical-align:top;">session_cookie_compression_level</td><td style="vertical-align:top;">:</td><td><div>None</div></td></tr><tr><td style="font-weight:bold;vertical-align:top;">session_cookie_expires</td><td style="vertical-align:top;">:</td><td><div>None</div></td></tr><tr><td style="font-weight:bold;vertical-align:top;">session_cookie_key</td><td style="vertical-align:top;">:</td><td><div>None</div></td></tr><tr><td style="font-weight:bold;vertical-align:top;">session_data_name</td><td style="vertical-align:top;">:</td><td><div>session_data_teste_ldap</div></td></tr><tr><td style="font-weight:bold;vertical-align:top;">session_file</td><td style="vertical-align:top;">:</td><td><div>&lt;open file &#x27;/var/www/web2py/applications/teste_ldap/sessions/0f8/116/127.0.0.1-a6aa1dda-8484-40a7-9408-0da5ecadc908&#x27;, mode &#x27;rb+&#x27; at 0x7f79c6335030&gt;</div></td></tr><tr><td style="font-weight:bold;vertical-align:top;">session_filename</td><td style="vertical-align:top;">:</td><td><div>/var/www/web2py/applications/teste_ldap/sessions/127.0.0.1-a6aa1dda-8484-40a7-9408-0da5ecadc908</div></td></tr><tr><td style="font-weight:bold;vertical-align:top;">session_hash</td><td style="vertical-align:top;">:</td><td><div>5df49e95d1786bf16ec99d73d5f4e101</div></td></tr><tr><td style="font-weight:bold;vertical-align:top;">session_id</td><td style="vertical-align:top;">:</td><td><div>127.0.0.1-a6aa1dda-8484-40a7-9408-0da5ecadc908</div></td></tr><tr><td style="font-weight:bold;vertical-align:top;">session_id_name</td><td style="vertical-align:top;">:</td><td><div>session_id_teste_ldap</div></td></tr><tr><td style="font-weight:bold;vertical-align:top;">session_locked</td><td style="vertical-align:top;">:</td><td><div>True</div></td></tr><tr><td style="font-weight:bold;vertical-align:top;">session_masterapp</td><td style="vertical-align:top;">:</td><td><div>teste_ldap</div></td></tr><tr><td style="font-weight:bold;vertical-align:top;">session_new</td><td style="vertical-align:top;">:</td><td><div>False</div></td></tr><tr><td style="font-weight:bold;vertical-align:top;">session_storage_type</td><td style="vertical-align:top;">:</td><td><div>file</div></td></tr><tr><td style="font-weight:bold;vertical-align:top;">status</td><td style="vertical-align:top;">:</td><td><div>200</div></td></tr><tr><td style="font-weight:bold;vertical-align:top;">view</td><td style="vertical-align:top;">:</td><td><div>principal/login.html</div></td></tr></table></div>'
tRp118
sS'locals'
p119
(dp120
S'OBJECT'
p121
S"<class 'gluon.html.OBJECT'>"
p122
sS'SQLDB'
p123
S"<class 'pydal.base.DAL'>"
p124
sg111
S"<Storage {'_formkey[login]': ['b262bbfb-13ef-4a2...cef0f', 'bf883830-8c2a-4ca6-8be2-3454cb35709a']}>"
p125
sS'LINK'
p126
S"<class 'gluon.html.LINK'>"
p127
sS'BR'
p128
S"<class 'gluon.html.BR'>"
p129
sS'local_import'
p130
S'<function <lambda>>'
p131
sS'OPTGROUP'
p132
S"<class 'gluon.html.OPTGROUP'>"
p133
sS'__package__'
p134
S'None'
p135
sS'PRE'
p136
S"<class 'gluon.html.PRE'>"
p137
sS'IS_INT_IN_RANGE'
p138
S"<class 'gluon.validators.IS_INT_IN_RANGE'>"
p139
sS'IS_LOWER'
p140
S"<class 'gluon.validators.IS_LOWER'>"
p141
sS'IS_STRONG'
p142
S"<class 'gluon.validators.IS_STRONG'>"
p143
sS'cache'
p144
S'<gluon.cache.Cache object>'
p145
sS'IS_IN_DB'
p146
S"<class 'gluon.validators.IS_IN_DB'>"
p147
sS'TAG'
p148
S'<gluon.html.__TAG__ object>'
p149
sS'ldap'
p150
S"<module 'ldap' from '/usr/lib/python2.7/dist-packages/ldap/__init__.pyc'>"
p151
sS'SQLField'
p152
S"<class 'pydal.objects.Field'>"
p153
sS'BODY'
p154
S"<class 'gluon.html.BODY'>"
p155
sS'IS_DATE_IN_RANGE'
p156
S"<class 'gluon.validators.IS_DATE_IN_RANGE'>"
p157
sS'TH'
p158
S"<class 'gluon.html.TH'>"
p159
sS'URL'
p160
S'<function URL>'
p161
sS'__file__'
p162
S"'/var/www/web2py/applications/teste_ldap/models/config.py'"
p163
sS'db'
p164
S'<DAL uri="postgres:pg8000:******@localhost/teste_ldap">'
p165
sS'P'
S"<class 'gluon.html.P'>"
p166
sS'TFOOT'
p167
S"<class 'gluon.html.TFOOT'>"
p168
sS'XHTML'
p169
S"<class 'gluon.html.XHTML'>"
p170
sS'ON'
p171
S'True'
p172
sS'OL'
p173
S"<class 'gluon.html.OL'>"
p174
sS'TEXTAREA'
p175
S"<class 'gluon.html.TEXTAREA'>"
p176
sS'MENU'
p177
S"<class 'gluon.html.MENU'>"
p178
sS'ldap_auth'
p179
S'<function ldap_auth>'
p180
sS'LOAD'
p181
S'<function LOAD>'
p182
sS'CODE'
p183
S"<class 'gluon.html.CODE'>"
p184
sS'HTTP'
p185
S"<class 'gluon.http.HTTP'>"
p186
sS'HR'
p187
S"<class 'gluon.html.HR'>"
p188
sS'IS_DATETIME'
p189
S"<class 'gluon.validators.IS_DATETIME'>"
p190
sS'Storage'
p191
S"<class 'gluon.storage.Storage'>"
p192
sS'HEAD'
p193
S"<class 'gluon.html.HEAD'>"
p194
sS'LABEL'
p195
S"<class 'gluon.html.LABEL'>"
p196
sS'CLEANUP'
p197
S"<class 'gluon.validators.CLEANUP'>"
p198
sS'SELECT'
p199
S"<class 'gluon.html.SELECT'>"
p200
sS'CENTER'
p201
S"<class 'gluon.html.CENTER'>"
p202
sS'__builtins__'
p203
S"{'ArithmeticError': <type 'exceptions.ArithmeticError'>, 'AssertionError': <type 'exceptions.AssertionError'>, 'AttributeError': <type 'exceptions.AttributeError'>, 'BaseException': <type 'exceptions.BaseException'>, 'BufferError': <type 'exceptions.BufferError'>, 'BytesWarning': <type 'exceptions.BytesWarning'>, 'DeprecationWarning': <type 'exceptions.DeprecationWarning'>, 'EOFError': <type 'exceptions.EOFError'>, 'Ellipsis': Ellipsis, 'EnvironmentError': <type 'exceptions.EnvironmentError'>, ...}"
p204
sS'HTML'
p205
S"<class 'gluon.html.HTML'>"
p206
sS'SQLFORM'
p207
S"<class 'gluon.sqlhtml.SQLFORM'>"
p208
sS'EM'
p209
S"<class 'gluon.html.EM'>"
p210
sS'redirect'
p211
S'<function redirect>'
p212
sS'FIELDSET'
p213
S"<class 'gluon.html.FIELDSET'>"
p214
sS'IS_EQUAL_TO'
p215
S"<class 'gluon.validators.IS_EQUAL_TO'>"
p216
sS'embed64'
p217
S'<function embed64>'
p218
sS'IS_LIST_OF'
p219
S"<class 'gluon.validators.IS_LIST_OF'>"
p220
sS'__name__'
p221
S"'__restricted__'"
p222
sS'EMBED'
p223
S"<class 'gluon.html.EMBED'>"
p224
sS'FORM'
p225
S"<class 'gluon.html.FORM'>"
p226
sS'H2'
p227
S"<class 'gluon.html.H2'>"
p228
sS'H3'
p229
S"<class 'gluon.html.H3'>"
p230
sS'BUTTON'
p231
S"<class 'gluon.html.BUTTON'>"
p232
sS'H1'
p233
S"<class 'gluon.html.H1'>"
p234
sS'H6'
p235
S"<class 'gluon.html.H6'>"
p236
sS'H4'
p237
S"<class 'gluon.html.H4'>"
p238
sS'H5'
p239
S"<class 'gluon.html.H5'>"
p240
sS'UL'
p241
S"<class 'gluon.html.UL'>"
p242
sS'IS_UPPER'
p243
S"<class 'gluon.validators.IS_UPPER'>"
p244
sS'xmlescape'
p245
S'<function xmlescape>'
p246
sS'IS_TIME'
p247
S"<class 'gluon.validators.IS_TIME'>"
p248
sS'OPTION'
p249
S"<class 'gluon.html.OPTION'>"
p250
sS'TITLE'
p251
S"<class 'gluon.html.TITLE'>"
p252
sS'CRYPT'
p253
S"<class 'gluon.validators.CRYPT'>"
p254
sS'IS_EMPTY_OR'
p255
S"<class 'gluon.validators.IS_EMPTY_OR'>"
p256
sS'MARKMIN'
p257
S"<class 'gluon.html.MARKMIN'>"
p258
sS'INPUT'
p259
S"<class 'gluon.html.INPUT'>"
p260
sS'STRONG'
p261
S"<class 'gluon.html.STRONG'>"
p262
sS'COL'
p263
S"<class 'gluon.html.COL'>"
p264
sS'SCRIPT'
p265
S"<class 'gluon.html.SCRIPT'>"
p266
sS'TABLE'
p267
S"<class 'gluon.html.TABLE'>"
p268
sS'IS_IPV4'
p269
S"<class 'gluon.validators.IS_IPV4'>"
p270
sS'IS_LENGTH'
p271
S"<class 'gluon.validators.IS_LENGTH'>"
p272
sS'IS_IPV6'
p273
S"<class 'gluon.validators.IS_IPV6'>"
p274
sS'XML'
p275
S"<class 'gluon.html.XML'>"
p276
sS'B'
S"<class 'gluon.html.B'>"
p277
sS'IMG'
p278
S"<class 'gluon.html.IMG'>"
p279
sS'SQLTABLE'
p280
S"<class 'gluon.sqlhtml.SQLTABLE'>"
p281
sS'IS_MATCH'
p282
S"<class 'gluon.validators.IS_MATCH'>"
p283
sS'IS_ALPHANUMERIC'
p284
S"<class 'gluon.validators.IS_ALPHANUMERIC'>"
p285
sS'SPAN'
p286
S"<class 'gluon.html.SPAN'>"
p287
sS'IS_JSON'
p288
S"<class 'gluon.validators.IS_JSON'>"
p289
sS'IS_IPADDRESS'
p290
S"<class 'gluon.validators.IS_IPADDRESS'>"
p291
sS'IS_SLUG'
p292
S"<class 'gluon.validators.IS_SLUG'>"
p293
sS'BEAUTIFY'
p294
S"<class 'gluon.html.BEAUTIFY'>"
p295
sS'META'
p296
S"<class 'gluon.html.META'>"
p297
sS'IS_URL'
p298
S"<class 'gluon.validators.IS_URL'>"
p299
sS'IS_DATE'
p300
S"<class 'gluon.validators.IS_DATE'>"
p301
sS'IS_EMAIL'
p302
S"<class 'gluon.validators.IS_EMAIL'>"
p303
sS'IS_NOT_EMPTY'
p304
S"<class 'gluon.validators.IS_NOT_EMPTY'>"
p305
sS'IS_FLOAT_IN_RANGE'
p306
S"<class 'gluon.validators.IS_FLOAT_IN_RANGE'>"
p307
sS'TBODY'
p308
S"<class 'gluon.html.TBODY'>"
p309
sS'CAT'
p310
S"<class 'gluon.html.CAT'>"
p311
sS'Field'
p312
S"<class 'pydal.objects.Field'>"
p313
sS'IS_LIST_OF_EMAILS'
p314
S"<class 'gluon.validators.IS_LIST_OF_EMAILS'>"
p315
sS'DIV'
p316
S"<class 'gluon.html.DIV'>"
p317
sS'LEGEND'
p318
S"<class 'gluon.html.LEGEND'>"
p319
sS'COLGROUP'
p320
S"<class 'gluon.html.COLGROUP'>"
p321
sS'DAL'
p322
S"<class 'pydal.base.DAL'>"
p323
sS'ASSIGNJS'
p324
S'<function ASSIGNJS>'
p325
sS'TR'
p326
S"<class 'gluon.html.TR'>"
p327
sS'LI'
p328
S"<class 'gluon.html.LI'>"
p329
sS'IFRAME'
p330
S"<class 'gluon.html.IFRAME'>"
p331
sS'TD'
p332
S"<class 'gluon.html.TD'>"
p333
sS'config'
p334
S"<Storage {'db': <Storage {'uri': 'postgres:pg8000://matheus:123456@localhost/teste_ldap'}>}>"
p335
sS'A'
S"<class 'gluon.html.A'>"
p336
sS'STYLE'
p337
S"<class 'gluon.html.STYLE'>"
p338
sS'IS_DATETIME_IN_RANGE'
p339
S"<class 'gluon.validators.IS_DATETIME_IN_RANGE'>"
p340
sS'IS_IMAGE'
p341
S"<class 'gluon.validators.IS_IMAGE'>"
p342
sS'I'
S"<class 'gluon.html.I'>"
p343
sS'IS_NOT_IN_DB'
p344
S"<class 'gluon.validators.IS_NOT_IN_DB'>"
p345
sg117
S"<Storage {'body': <cStringIO.StringO object at 0...0x7f79c5d4d230>, 'view': 'principal/login.html'}>"
p346
sS'THEAD'
p347
S"<class 'gluon.html.THEAD'>"
p348
sS'ANY_OF'
p349
S"<class 'gluon.validators.ANY_OF'>"
p350
sS'IS_NULL_OR'
p351
S"<class 'gluon.validators.IS_EMPTY_OR'>"
p352
sg56
S"<Storage {'_vars': None, 'function': 'login', 'c...er': '/var/www/web2py/applications/teste_ldap/'}>"
p353
sS'IS_EXPR'
p354
S"<class 'gluon.validators.IS_EXPR'>"
p355
sS'IS_IN_SET'
p356
S"<class 'gluon.validators.IS_IN_SET'>"
p357
sS'IS_UPLOAD_FILENAME'
p358
S"<class 'gluon.validators.IS_UPLOAD_FILENAME'>"
p359
sS'IS_DECIMAL_IN_RANGE'
p360
S"<class 'gluon.validators.IS_DECIMAL_IN_RANGE'>"
p361
sS'TT'
p362
S"<class 'gluon.html.TT'>"
p363
sS'T'
S'<gluon.languages.translator object>'
p364
sssS'traceback'
p365
S'Traceback (most recent call last):\n  File "/var/www/web2py/gluon/restricted.py", line 227, in restricted\n    exec ccode in environment\n  File "/var/www/web2py/applications/teste_ldap/models/config.py", line 20, in <module>\n    auth = Auth(db, controller="principal",function="login")\nNameError: name \'Auth\' is not defined\n'
p366
s.