(dp1
S'output'
p2
S"<type 'exceptions.TypeError'> list indices must be integers, not str"
p3
sS'layer'
p4
S'/var/www/web2py/applications/teste_ldap/views/principal/index.html'
p5
sS'code'
p6
S"for item in resultado['facsimileTelephoneNumber']:\n    response.write('\\n        ', escape=False)\n    for item2 in item['facsimileTelephoneNumber']:\n        response.write('\\n            ', escape=False)\n        response.write(item2)\n        response.write('\\n        ', escape=False)\n        pass\n    response.write('\\n', escape=False)\n    pass"
p7
sS'snapshot'
p8
(dp9
S'exception'
p10
(dp11
S'__hash__'
p12
S"<method-wrapper '__hash__' of exceptions.TypeError object>"
p13
sS'__setattr__'
p14
S"<method-wrapper '__setattr__' of exceptions.TypeError object>"
p15
sS'__reduce_ex__'
p16
S'<built-in method __reduce_ex__ of exceptions.TypeError object>'
p17
sS'__getslice__'
p18
S"<method-wrapper '__getslice__' of exceptions.TypeError object>"
p19
sS'__getitem__'
p20
S"<method-wrapper '__getitem__' of exceptions.TypeError object>"
p21
sS'__setstate__'
p22
S'<built-in method __setstate__ of exceptions.TypeError object>'
p23
sS'args'
p24
S"('list indices must be integers, not str',)"
p25
sS'__reduce__'
p26
S'<built-in method __reduce__ of exceptions.TypeError object>'
p27
sS'__str__'
p28
S"<method-wrapper '__str__' of exceptions.TypeError object>"
p29
sS'__format__'
p30
S'<built-in method __format__ of exceptions.TypeError object>'
p31
sS'__getattribute__'
p32
S"<method-wrapper '__getattribute__' of exceptions.TypeError object>"
p33
sS'__class__'
p34
S"<type 'exceptions.TypeError'>"
p35
sS'__unicode__'
p36
S'<built-in method __unicode__ of exceptions.TypeError object>'
p37
sS'__delattr__'
p38
S"<method-wrapper '__delattr__' of exceptions.TypeError object>"
p39
sS'__subclasshook__'
p40
S'<built-in method __subclasshook__ of type object>'
p41
sS'__repr__'
p42
S"<method-wrapper '__repr__' of exceptions.TypeError object>"
p43
sS'__dict__'
p44
S'{}'
p45
sS'__sizeof__'
p46
S'<built-in method __sizeof__ of exceptions.TypeError object>'
p47
sS'__doc__'
p48
S"'Inappropriate argument type.'"
p49
sS'__init__'
p50
S"<method-wrapper '__init__' of exceptions.TypeError object>"
p51
sS'__new__'
p52
S'<built-in method __new__ of type object>'
p53
ssS'evalue'
p54
S'list indices must be integers, not str'
p55
sS'request'
p56
cgluon.html
XML_unpickle
p57
(S's\xe1U\x00\x00<div><table><tr><td style="font-weight:bold;vertical-align:top;">ajax</td><td style="vertical-align:top;">:</td><td><div>False</div></td></tr><tr><td style="font-weight:bold;vertical-align:top;">application</td><td style="vertical-align:top;">:</td><td><div>teste_ldap</div></td></tr><tr><td style="font-weight:bold;vertical-align:top;">args</td><td style="vertical-align:top;">:</td><td><div><table></table></div></td></tr><tr><td style="font-weight:bold;vertical-align:top;">cid</td><td style="vertical-align:top;">:</td><td><div>None</div></td></tr><tr><td style="font-weight:bold;vertical-align:top;">client</td><td style="vertical-align:top;">:</td><td><div>127.0.0.1</div></td></tr><tr><td style="font-weight:bold;vertical-align:top;">controller</td><td style="vertical-align:top;">:</td><td><div>principal</div></td></tr><tr><td style="font-weight:bold;vertical-align:top;">cookies</td><td style="vertical-align:top;">:</td><td><div><table><tr><td style="font-weight:bold;vertical-align:top;">session_id_admin</td><td style="vertical-align:top;">:</td><td><div>127.0.0.1-09587138-635b-4ce9-9b31-bd050739537a<table><tr><td style="font-weight:bold;vertical-align:top;">comment</td><td style="vertical-align:top;">:</td><td><div></div></td></tr><tr><td style="font-weight:bold;vertical-align:top;">domain</td><td style="vertical-align:top;">:</td><td><div></div></td></tr><tr><td style="font-weight:bold;vertical-align:top;">expires</td><td style="vertical-align:top;">:</td><td><div></div></td></tr><tr><td style="font-weight:bold;vertical-align:top;">httponly</td><td style="vertical-align:top;">:</td><td><div></div></td></tr><tr><td style="font-weight:bold;vertical-align:top;">max-age</td><td style="vertical-align:top;">:</td><td><div></div></td></tr><tr><td style="font-weight:bold;vertical-align:top;">path</td><td style="vertical-align:top;">:</td><td><div></div></td></tr><tr><td style="font-weight:bold;vertical-align:top;">secure</td><td style="vertical-align:top;">:</td><td><div></div></td></tr><tr><td style="font-weight:bold;vertical-align:top;">version</td><td style="vertical-align:top;">:</td><td><div></div></td></tr></table></div></td></tr><tr><td style="font-weight:bold;vertical-align:top;">session_id_teste_ldap</td><td style="vertical-align:top;">:</td><td><div>127.0.0.1-4dac357f-9b9f-4272-b383-89940e5c5da8<table><tr><td style="font-weight:bold;vertical-align:top;">comment</td><td style="vertical-align:top;">:</td><td><div></div></td></tr><tr><td style="font-weight:bold;vertical-align:top;">domain</td><td style="vertical-align:top;">:</td><td><div></div></td></tr><tr><td style="font-weight:bold;vertical-align:top;">expires</td><td style="vertical-align:top;">:</td><td><div></div></td></tr><tr><td style="font-weight:bold;vertical-align:top;">httponly</td><td style="vertical-align:top;">:</td><td><div></div></td></tr><tr><td style="font-weight:bold;vertical-align:top;">max-age</td><td style="vertical-align:top;">:</td><td><div></div></td></tr><tr><td style="font-weight:bold;vertical-align:top;">path</td><td style="vertical-align:top;">:</td><td><div></div></td></tr><tr><td style="font-weight:bold;vertical-align:top;">secure</td><td style="vertical-align:top;">:</td><td><div></div></td></tr><tr><td style="font-weight:bold;vertical-align:top;">version</td><td style="vertical-align:top;">:</td><td><div></div></td></tr></table></div></td></tr></table></div></td></tr><tr><td style="font-weight:bold;vertical-align:top;">env</td><td style="vertical-align:top;">:</td><td><div><table><tr><td style="font-weight:bold;vertical-align:top;">HTTP_ACCEPT</td><td style="vertical-align:top;">:</td><td><div>text/html,application/xhtml+xml,application/xml;q=0.9,image/webp,*/*;q=0.8</div></td></tr><tr><td style="font-weight:bold;vertical-align:top;">HTTP_ACCEPT_ENCODING</td><td style="vertical-align:top;">:</td><td><div>gzip, deflate, sdch</div></td></tr><tr><td style="font-weight:bold;vertical-align:top;">HTTP_ACCEPT_LANGUAGE</td><td style="vertical-align:top;">:</td><td><div>pt-BR,pt;q=0.8,en-US;q=0.6,en;q=0.4</div></td></tr><tr><td style="font-weight:bold;vertical-align:top;">HTTP_CACHE_CONTROL</td><td style="vertical-align:top;">:</td><td><div>max-age=0</div></td></tr><tr><td style="font-weight:bold;vertical-align:top;">HTTP_CONNECTION</td><td style="vertical-align:top;">:</td><td><div>keep-alive</div></td></tr><tr><td style="font-weight:bold;vertical-align:top;">HTTP_COOKIE</td><td style="vertical-align:top;">:</td><td><div>session_id_teste_ldap=127.0.0.1-4dac357f-9b9f-4272-b383-89940e5c5da8; session_id_admin=127.0.0.1-09587138-635b-4ce9-9b31-bd050739537a</div></td></tr><tr><td style="font-weight:bold;vertical-align:top;">HTTP_HOST</td><td style="vertical-align:top;">:</td><td><div>localhost:8000</div></td></tr><tr><td style="font-weight:bold;vertical-align:top;">HTTP_USER_AGENT</td><td style="vertical-align:top;">:</td><td><div>Mozilla/5.0 (X11; Linux x86_64) AppleWebKit/537.36 (KHTML, like Gecko) Chrome/42.0.2311.90 Safari/537.36</div></td></tr><tr><td style="font-weight:bold;vertical-align:top;">PATH_INFO</td><td style="vertical-align:top;">:</td><td><div>/teste_ldap/principal/index</div></td></tr><tr><td style="font-weight:bold;vertical-align:top;">QUERY_STRING</td><td style="vertical-align:top;">:</td><td><div></div></td></tr><tr><td style="font-weight:bold;vertical-align:top;">REMOTE_ADDR</td><td style="vertical-align:top;">:</td><td><div>127.0.0.1</div></td></tr><tr><td style="font-weight:bold;vertical-align:top;">REMOTE_PORT</td><td style="vertical-align:top;">:</td><td><div>50551</div></td></tr><tr><td style="font-weight:bold;vertical-align:top;">REQUEST_METHOD</td><td style="vertical-align:top;">:</td><td><div>GET</div></td></tr><tr><td style="font-weight:bold;vertical-align:top;">SCRIPT_NAME</td><td style="vertical-align:top;">:</td><td><div></div></td></tr><tr><td style="font-weight:bold;vertical-align:top;">SERVER_NAME</td><td style="vertical-align:top;">:</td><td><div>matheus-pc</div></td></tr><tr><td style="font-weight:bold;vertical-align:top;">SERVER_PORT</td><td style="vertical-align:top;">:</td><td><div>8000</div></td></tr><tr><td style="font-weight:bold;vertical-align:top;">SERVER_PROTOCOL</td><td style="vertical-align:top;">:</td><td><div>HTTP/1.1</div></td></tr><tr><td style="font-weight:bold;vertical-align:top;">SERVER_SOFTWARE</td><td style="vertical-align:top;">:</td><td><div>Rocket 1.2.6</div></td></tr><tr><td style="font-weight:bold;vertical-align:top;">app_folders</td><td style="vertical-align:top;">:</td><td><div>set([&#x27;/var/www/web2py/applications/teste_ldap/&#x27;, &#x27;/var/www/web2py/applications/admin/&#x27;])</div></td></tr><tr><td style="font-weight:bold;vertical-align:top;">applications_parent</td><td style="vertical-align:top;">:</td><td><div>/var/www/web2py</div></td></tr><tr><td style="font-weight:bold;vertical-align:top;">cmd_args</td><td style="vertical-align:top;">:</td><td><div><table></table></div></td></tr><tr><td style="font-weight:bold;vertical-align:top;">cmd_options</td><td style="vertical-align:top;">:</td><td><div>&lt;Values at 0x7f983461a560: {&#x27;verbose&#x27;: False, &#x27;ip&#x27;: &#x27;127.0.0.1&#x27;, &#x27;debuglevel&#x27;: 30, &#x27;with_scheduler&#x27;: False, &#x27;ips&#x27;: [&#x27;192.168.100.100&#x27;], &#x27;shutdown_timeout&#x27;: 5, &#x27;taskbar&#x27;: False, &#x27;with_coverage&#x27;: False, &#x27;scheduler_groups&#x27;: None, &#x27;port&#x27;: 8000, &#x27;maxthreads&#x27;: None, &#x27;softcron&#x27;: False, &#x27;server_name&#x27;: &#x27;matheus-pc&#x27;, &#x27;bpython&#x27;: False, &#x27;nogui&#x27;: False, &#x27;pid_filename&#x27;: &#x27;httpserver.pid&#x27;, &#x27;print_errors&#x27;: False, &#x27;extcron&#x27;: False, &#x27;runcron&#x27;: False, &#x27;run_system_tests&#x27;: False, &#x27;test&#x27;: None, &#x27;folder&#x27;: &#x27;/var/www/web2py&#x27;, &#x27;config&#x27;: &#x27;&#x27;, &#x27;minthreads&#x27;: None, &#x27;shell&#x27;: None, &#x27;run&#x27;: &#x27;&#x27;, &#x27;log_filename&#x27;: &#x27;httpserver.log&#x27;, &#x27;profiler_dir&#x27;: None, &#x27;args&#x27;: [&#x27;&#x27;], &#x27;socket_timeout&#x27;: 5, &#x27;ssl_ca_certificate&#x27;: None, &#x27;scheduler&#x27;: None, &#x27;interfaces&#x27;: None, &#x27;ssl_private_key&#x27;: &#x27;&#x27;, &#x27;gae&#x27;: None, &#x27;password&#x27;: &#x27;123&#x27;, &#x27;request_queue_size&#x27;: 5, &#x27;ssl_certificate&#x27;: &#x27;&#x27;, &#x27;cronjob&#x27;: False, &#x27;numthreads&#x27;: None, &#x27;quiet&#x27;: False, &#x27;import_models&#x27;: False, &#x27;timeout&#x27;: 10, &#x27;plain&#x27;: False, &#x27;nobanner&#x27;: False}&gt;</div></td></tr><tr><td style="font-weight:bold;vertical-align:top;">db_sessions</td><td style="vertical-align:top;">:</td><td><div>set([])</div></td></tr><tr><td style="font-weight:bold;vertical-align:top;">debugging</td><td style="vertical-align:top;">:</td><td><div>False</div></td></tr><tr><td style="font-weight:bold;vertical-align:top;">gluon_parent</td><td style="vertical-align:top;">:</td><td><div>/var/www/web2py</div></td></tr><tr><td style="font-weight:bold;vertical-align:top;">http_accept</td><td style="vertical-align:top;">:</td><td><div>text/html,application/xhtml+xml,application/xml;q=0.9,image/webp,*/*;q=0.8</div></td></tr><tr><td style="font-weight:bold;vertical-align:top;">http_accept_encoding</td><td style="vertical-align:top;">:</td><td><div>gzip, deflate, sdch</div></td></tr><tr><td style="font-weight:bold;vertical-align:top;">http_accept_language</td><td style="vertical-align:top;">:</td><td><div>pt-BR,pt;q=0.8,en-US;q=0.6,en;q=0.4</div></td></tr><tr><td style="font-weight:bold;vertical-align:top;">http_cache_control</td><td style="vertical-align:top;">:</td><td><div>max-age=0</div></td></tr><tr><td style="font-weight:bold;vertical-align:top;">http_connection</td><td style="vertical-align:top;">:</td><td><div>keep-alive</div></td></tr><tr><td style="font-weight:bold;vertical-align:top;">http_cookie</td><td style="vertical-align:top;">:</td><td><div>session_id_teste_ldap=127.0.0.1-4dac357f-9b9f-4272-b383-89940e5c5da8; session_id_admin=127.0.0.1-09587138-635b-4ce9-9b31-bd050739537a</div></td></tr><tr><td style="font-weight:bold;vertical-align:top;">http_host</td><td style="vertical-align:top;">:</td><td><div>localhost:8000</div></td></tr><tr><td style="font-weight:bold;vertical-align:top;">http_user_agent</td><td style="vertical-align:top;">:</td><td><div>Mozilla/5.0 (X11; Linux x86_64) AppleWebKit/537.36 (KHTML, like Gecko) Chrome/42.0.2311.90 Safari/537.36</div></td></tr><tr><td style="font-weight:bold;vertical-align:top;">is_jython</td><td style="vertical-align:top;">:</td><td><div>False</div></td></tr><tr><td style="font-weight:bold;vertical-align:top;">is_pypy</td><td style="vertical-align:top;">:</td><td><div>False</div></td></tr><tr><td style="font-weight:bold;vertical-align:top;">is_source</td><td style="vertical-align:top;">:</td><td><div>True</div></td></tr><tr><td style="font-weight:bold;vertical-align:top;">local_hosts</td><td style="vertical-align:top;">:</td><td><div><table><tr><td><div>matheus-pc.forip.com.br</div></td></tr><tr><td><div>::ffff:127.0.0.1</div></td></tr><tr><td><div>::1</div></td></tr><tr><td><div>matheus-pc</div></td></tr><tr><td><div>192.168.100.100</div></td></tr><tr><td><div>127.0.0.1</div></td></tr></table></div></td></tr><tr><td style="font-weight:bold;vertical-align:top;">path_info</td><td style="vertical-align:top;">:</td><td><div>/teste_ldap/principal/index</div></td></tr><tr><td style="font-weight:bold;vertical-align:top;">query_string</td><td style="vertical-align:top;">:</td><td><div></div></td></tr><tr><td style="font-weight:bold;vertical-align:top;">remote_addr</td><td style="vertical-align:top;">:</td><td><div>127.0.0.1</div></td></tr><tr><td style="font-weight:bold;vertical-align:top;">remote_port</td><td style="vertical-align:top;">:</td><td><div>50551</div></td></tr><tr><td style="font-weight:bold;vertical-align:top;">request_method</td><td style="vertical-align:top;">:</td><td><div>GET</div></td></tr><tr><td style="font-weight:bold;vertical-align:top;">request_uri</td><td style="vertical-align:top;">:</td><td><div>/teste_ldap/principal/index</div></td></tr><tr><td style="font-weight:bold;vertical-align:top;">script_name</td><td style="vertical-align:top;">:</td><td><div></div></td></tr><tr><td style="font-weight:bold;vertical-align:top;">server_name</td><td style="vertical-align:top;">:</td><td><div>matheus-pc</div></td></tr><tr><td style="font-weight:bold;vertical-align:top;">server_port</td><td style="vertical-align:top;">:</td><td><div>8000</div></td></tr><tr><td style="font-weight:bold;vertical-align:top;">server_protocol</td><td style="vertical-align:top;">:</td><td><div>HTTP/1.1</div></td></tr><tr><td style="font-weight:bold;vertical-align:top;">server_software</td><td style="vertical-align:top;">:</td><td><div>Rocket 1.2.6</div></td></tr><tr><td style="font-weight:bold;vertical-align:top;">web2py_path</td><td style="vertical-align:top;">:</td><td><div>/var/www/web2py</div></td></tr><tr><td style="font-weight:bold;vertical-align:top;">web2py_version</td><td style="vertical-align:top;">:</td><td><div>2.10.4-stable+timestamp.2015.04.26.15.11.54</div></td></tr><tr><td style="font-weight:bold;vertical-align:top;">wsgi.errors</td><td style="vertical-align:top;">:</td><td><div>&lt;open file &#x27;&lt;stderr&gt;&#x27;, mode &#x27;w&#x27; at 0x7f98441061e0&gt;</div></td></tr><tr><td style="font-weight:bold;vertical-align:top;">wsgi.file_wrapper</td><td style="vertical-align:top;">:</td><td><div>&lt;class wsgiref.util.FileWrapper at 0x7f983463c6d0&gt;</div></td></tr><tr><td style="font-weight:bold;vertical-align:top;">wsgi.input</td><td style="vertical-align:top;">:</td><td><div>&lt;socket._fileobject object at 0x7f97f15aa7d0&gt;</div></td></tr><tr><td style="font-weight:bold;vertical-align:top;">wsgi.multiprocess</td><td style="vertical-align:top;">:</td><td><div>False</div></td></tr><tr><td style="font-weight:bold;vertical-align:top;">wsgi.multithread</td><td style="vertical-align:top;">:</td><td><div>True</div></td></tr><tr><td style="font-weight:bold;vertical-align:top;">wsgi.run_once</td><td style="vertical-align:top;">:</td><td><div>False</div></td></tr><tr><td style="font-weight:bold;vertical-align:top;">wsgi.url_scheme</td><td style="vertical-align:top;">:</td><td><div>http</div></td></tr><tr><td style="font-weight:bold;vertical-align:top;">wsgi.version</td><td style="vertical-align:top;">:</td><td><div><table><tr><td><div>1</div></td></tr><tr><td><div>0</div></td></tr></table></div></td></tr><tr><td style="font-weight:bold;vertical-align:top;">wsgi_errors</td><td style="vertical-align:top;">:</td><td><div>&lt;open file &#x27;&lt;stderr&gt;&#x27;, mode &#x27;w&#x27; at 0x7f98441061e0&gt;</div></td></tr><tr><td style="font-weight:bold;vertical-align:top;">wsgi_file_wrapper</td><td style="vertical-align:top;">:</td><td><div>&lt;class wsgiref.util.FileWrapper at 0x7f983463c6d0&gt;</div></td></tr><tr><td style="font-weight:bold;vertical-align:top;">wsgi_input</td><td style="vertical-align:top;">:</td><td><div>&lt;socket._fileobject object at 0x7f97f15aa7d0&gt;</div></td></tr><tr><td style="font-weight:bold;vertical-align:top;">wsgi_multiprocess</td><td style="vertical-align:top;">:</td><td><div>False</div></td></tr><tr><td style="font-weight:bold;vertical-align:top;">wsgi_multithread</td><td style="vertical-align:top;">:</td><td><div>True</div></td></tr><tr><td style="font-weight:bold;vertical-align:top;">wsgi_run_once</td><td style="vertical-align:top;">:</td><td><div>False</div></td></tr><tr><td style="font-weight:bold;vertical-align:top;">wsgi_url_scheme</td><td style="vertical-align:top;">:</td><td><div>http</div></td></tr><tr><td style="font-weight:bold;vertical-align:top;">wsgi_version</td><td style="vertical-align:top;">:</td><td><div><table><tr><td><div>1</div></td></tr><tr><td><div>0</div></td></tr></table></div></td></tr></table></div></td></tr><tr><td style="font-weight:bold;vertical-align:top;">extension</td><td style="vertical-align:top;">:</td><td><div>html</div></td></tr><tr><td style="font-weight:bold;vertical-align:top;">folder</td><td style="vertical-align:top;">:</td><td><div>/var/www/web2py/applications/teste_ldap/</div></td></tr><tr><td style="font-weight:bold;vertical-align:top;">function</td><td style="vertical-align:top;">:</td><td><div>index</div></td></tr><tr><td style="font-weight:bold;vertical-align:top;">global_settings</td><td style="vertical-align:top;">:</td><td><div><table><tr><td style="font-weight:bold;vertical-align:top;">app_folders</td><td style="vertical-align:top;">:</td><td><div>set([&#x27;/var/www/web2py/applications/teste_ldap/&#x27;, &#x27;/var/www/web2py/applications/admin/&#x27;])</div></td></tr><tr><td style="font-weight:bold;vertical-align:top;">applications_parent</td><td style="vertical-align:top;">:</td><td><div>/var/www/web2py</div></td></tr><tr><td style="font-weight:bold;vertical-align:top;">cmd_args</td><td style="vertical-align:top;">:</td><td><div><table></table></div></td></tr><tr><td style="font-weight:bold;vertical-align:top;">cmd_options</td><td style="vertical-align:top;">:</td><td><div>&lt;Values at 0x7f983461a560: {&#x27;verbose&#x27;: False, &#x27;ip&#x27;: &#x27;127.0.0.1&#x27;, &#x27;debuglevel&#x27;: 30, &#x27;with_scheduler&#x27;: False, &#x27;ips&#x27;: [&#x27;192.168.100.100&#x27;], &#x27;shutdown_timeout&#x27;: 5, &#x27;taskbar&#x27;: False, &#x27;with_coverage&#x27;: False, &#x27;scheduler_groups&#x27;: None, &#x27;port&#x27;: 8000, &#x27;maxthreads&#x27;: None, &#x27;softcron&#x27;: False, &#x27;server_name&#x27;: &#x27;matheus-pc&#x27;, &#x27;bpython&#x27;: False, &#x27;nogui&#x27;: False, &#x27;pid_filename&#x27;: &#x27;httpserver.pid&#x27;, &#x27;print_errors&#x27;: False, &#x27;extcron&#x27;: False, &#x27;runcron&#x27;: False, &#x27;run_system_tests&#x27;: False, &#x27;test&#x27;: None, &#x27;folder&#x27;: &#x27;/var/www/web2py&#x27;, &#x27;config&#x27;: &#x27;&#x27;, &#x27;minthreads&#x27;: None, &#x27;shell&#x27;: None, &#x27;run&#x27;: &#x27;&#x27;, &#x27;log_filename&#x27;: &#x27;httpserver.log&#x27;, &#x27;profiler_dir&#x27;: None, &#x27;args&#x27;: [&#x27;&#x27;], &#x27;socket_timeout&#x27;: 5, &#x27;ssl_ca_certificate&#x27;: None, &#x27;scheduler&#x27;: None, &#x27;interfaces&#x27;: None, &#x27;ssl_private_key&#x27;: &#x27;&#x27;, &#x27;gae&#x27;: None, &#x27;password&#x27;: &#x27;123&#x27;, &#x27;request_queue_size&#x27;: 5, &#x27;ssl_certificate&#x27;: &#x27;&#x27;, &#x27;cronjob&#x27;: False, &#x27;numthreads&#x27;: None, &#x27;quiet&#x27;: False, &#x27;import_models&#x27;: False, &#x27;timeout&#x27;: 10, &#x27;plain&#x27;: False, &#x27;nobanner&#x27;: False}&gt;</div></td></tr><tr><td style="font-weight:bold;vertical-align:top;">db_sessions</td><td style="vertical-align:top;">:</td><td><div>set([])</div></td></tr><tr><td style="font-weight:bold;vertical-align:top;">debugging</td><td style="vertical-align:top;">:</td><td><div>False</div></td></tr><tr><td style="font-weight:bold;vertical-align:top;">gluon_parent</td><td style="vertical-align:top;">:</td><td><div>/var/www/web2py</div></td></tr><tr><td style="font-weight:bold;vertical-align:top;">is_jython</td><td style="vertical-align:top;">:</td><td><div>False</div></td></tr><tr><td style="font-weight:bold;vertical-align:top;">is_pypy</td><td style="vertical-align:top;">:</td><td><div>False</div></td></tr><tr><td style="font-weight:bold;vertical-align:top;">is_source</td><td style="vertical-align:top;">:</td><td><div>True</div></td></tr><tr><td style="font-weight:bold;vertical-align:top;">local_hosts</td><td style="vertical-align:top;">:</td><td><div><table><tr><td><div>matheus-pc.forip.com.br</div></td></tr><tr><td><div>::ffff:127.0.0.1</div></td></tr><tr><td><div>::1</div></td></tr><tr><td><div>matheus-pc</div></td></tr><tr><td><div>192.168.100.100</div></td></tr><tr><td><div>127.0.0.1</div></td></tr></table></div></td></tr><tr><td style="font-weight:bold;vertical-align:top;">web2py_version</td><td style="vertical-align:top;">:</td><td><div>2.10.4-stable+timestamp.2015.04.26.15.11.54</div></td></tr></table></div></td></tr><tr><td style="font-weight:bold;vertical-align:top;">is_https</td><td style="vertical-align:top;">:</td><td><div>False</div></td></tr><tr><td style="font-weight:bold;vertical-align:top;">is_local</td><td style="vertical-align:top;">:</td><td><div>True</div></td></tr><tr><td style="font-weight:bold;vertical-align:top;">is_restful</td><td style="vertical-align:top;">:</td><td><div>False</div></td></tr><tr><td style="font-weight:bold;vertical-align:top;">is_sheduler</td><td style="vertical-align:top;">:</td><td><div>None</div></td></tr><tr><td style="font-weight:bold;vertical-align:top;">is_shell</td><td style="vertical-align:top;">:</td><td><div>None</div></td></tr><tr><td style="font-weight:bold;vertical-align:top;">now</td><td style="vertical-align:top;">:</td><td><div>datetime.datetime(2015, 5, 8, 14, 20, 27, 549683)</div></td></tr><tr><td style="font-weight:bold;vertical-align:top;">raw_args</td><td style="vertical-align:top;">:</td><td><div></div></td></tr><tr><td style="font-weight:bold;vertical-align:top;">raw_extension</td><td style="vertical-align:top;">:</td><td><div>None</div></td></tr><tr><td style="font-weight:bold;vertical-align:top;">url</td><td style="vertical-align:top;">:</td><td><div>/teste_ldap/principal/index</div></td></tr><tr><td style="font-weight:bold;vertical-align:top;">utcnow</td><td style="vertical-align:top;">:</td><td><div>datetime.datetime(2015, 5, 8, 17, 20, 27, 549712)</div></td></tr><tr><td style="font-weight:bold;vertical-align:top;">uuid</td><td style="vertical-align:top;">:</td><td><div>teste_ldap/127.0.0.1.2015-05-08.14-20-27.6edd202b-beab-4304-b1ff-057770a5cc98</div></td></tr><tr><td style="font-weight:bold;vertical-align:top;">wsgi</td><td style="vertical-align:top;">:</td><td><div>&lt;gluon.main.LazyWSGI object at 0x7f97f0b17150&gt;</div></td></tr></table></div>'
tRp58
sS'frames'
p59
(lp60
(dp61
S'file'
p62
S'/var/www/web2py/gluon/restricted.py'
p63
sS'dump'
p64
(dp65
S'environment'
p66
S"{'A': <class 'gluon.html.A'>, 'ANY_OF': <class 'gluon.validators.ANY_OF'>, 'ASSIGNJS': <function ASSIGNJS>, 'Auth': <class 'gluon.tools.Auth'>, 'B': <class 'gluon.html.B'>, 'BEAUTIFY': <class 'gluon.html.BEAUTIFY'>, 'BODY': <class 'gluon.html.BODY'>, 'BR': <class 'gluon.html.BR'>, 'BUTTON': <class 'gluon.html.BUTTON'>, 'CAT': <class 'gluon.html.CAT'>, ...}"
p67
sS'ccode'
p68
S'<code object <module> at 0x7f97f0fa3230, file "/...s/teste_ldap/views/principal/index.html", line 1>'
p69
ssS'lnum'
p70
I227
sS'lines'
p71
(dp72
I224
S'            ccode = code'
p73
sI225
S'        else:'
p74
sI226
S'            ccode = compile2(code, layer)'
p75
sI227
S'        exec ccode in environment'
p76
sI228
S'    except HTTP:'
p77
sI229
S'        raise'
p78
sI230
S'    except RestrictedError:'
p79
sI231
S'        # do not encapsulate (obfuscate) the original RestrictedError'
p80
sI222
S'    try:'
p81
sI223
S'        if isinstance(code, types.CodeType):'
p82
ssS'call'
p83
S'(code="for item in resultado[\'facsimileTelephoneNumber\'...s\\n    response.write(\'\\\\n\', escape=False)\\n    pass", environment={\'A\': <class \'gluon.html.A\'>, \'ANY_OF\': <class \'gluon.validators.ANY_OF\'>, \'ASSIGNJS\': <function ASSIGNJS>, \'Auth\': <class \'gluon.tools.Auth\'>, \'B\': <class \'gluon.html.B\'>, \'BEAUTIFY\': <class \'gluon.html.BEAUTIFY\'>, \'BODY\': <class \'gluon.html.BODY\'>, \'BR\': <class \'gluon.html.BR\'>, \'BUTTON\': <class \'gluon.html.BUTTON\'>, \'CAT\': <class \'gluon.html.CAT\'>, ...}, layer=\'/var/www/web2py/applications/teste_ldap/views/principal/index.html\')'
p84
sS'func'
p85
S'restricted'
p86
sa(dp87
g62
S'/var/www/web2py/applications/teste_ldap/views/principal/index.html'
p88
sg64
(dp89
S'item'
p90
S'undefined'
p91
sS'resultado'
p92
S"[{'displayName': ['Andre Ribeiro'], 'facsimileTelephoneNumber': ['65656555'], 'ipPhone': ['8040@asterisk.forip.com.br'], 'mobile': ['016992340876']}, {'displayName': ['Matheus Suffi'], 'facsimileTelephoneNumber': ['34035555'], 'ipPhone': ['34034158'], 'mobile': ['992031462']}]"
p93
ssg70
I1
sg71
(dp94
I1
S"for item in resultado['facsimileTelephoneNumber']:"
p95
sI2
S"    response.write('\\n        ', escape=False)"
p96
sI3
S"    for item2 in item['facsimileTelephoneNumber']:"
p97
sI4
S"        response.write('\\n            ', escape=False)"
p98
sI5
S'        response.write(item2)'
p99
sI6
S"        response.write('\\n        ', escape=False)"
p100
sI7
S'        pass'
p101
sI8
S"    response.write('\\n', escape=False)"
p102
sI9
S'    pass'
p103
ssg83
S'()'
p104
sg85
S'<module>'
p105
sasS'pyver'
p106
S'Python 2.7.6: /usr/bin/python2.7 (prefix: /usr)'
p107
sS'session'
p108
g57
(S's\xdc\x08\x00\x00<div><table><tr><td style="font-weight:bold;vertical-align:top;">auth</td><td style="vertical-align:top;">:</td><td><div><table><tr><td style="font-weight:bold;vertical-align:top;">expiration</td><td style="vertical-align:top;">:</td><td><div>3600</div></td></tr><tr><td style="font-weight:bold;vertical-align:top;">hmac_key</td><td style="vertical-align:top;">:</td><td><div>feb11663-f565-4a9c-8793-1a34aca66e92</div></td></tr><tr><td style="font-weight:bold;vertical-align:top;">last_visit</td><td style="vertical-align:top;">:</td><td><div>datetime.datetime(2015, 5, 8, 14, 19, 41, 963387)</div></td></tr><tr><td style="font-weight:bold;vertical-align:top;">remember_me</td><td style="vertical-align:top;">:</td><td><div>False</div></td></tr><tr><td style="font-weight:bold;vertical-align:top;">user</td><td style="vertical-align:top;">:</td><td><div><table><tr><td style="font-weight:bold;vertical-align:top;">email</td><td style="vertical-align:top;">:</td><td><div></div></td></tr><tr><td style="font-weight:bold;vertical-align:top;">first_name</td><td style="vertical-align:top;">:</td><td><div>andre</div></td></tr><tr><td style="font-weight:bold;vertical-align:top;">id</td><td style="vertical-align:top;">:</td><td><div>3L</div></td></tr><tr><td style="font-weight:bold;vertical-align:top;">last_name</td><td style="vertical-align:top;">:</td><td><div></div></td></tr><tr><td style="font-weight:bold;vertical-align:top;">registration_id</td><td style="vertical-align:top;">:</td><td><div>andre</div></td></tr><tr><td style="font-weight:bold;vertical-align:top;">registration_key</td><td style="vertical-align:top;">:</td><td><div></div></td></tr><tr><td style="font-weight:bold;vertical-align:top;">reset_password_key</td><td style="vertical-align:top;">:</td><td><div></div></td></tr><tr><td style="font-weight:bold;vertical-align:top;">username</td><td style="vertical-align:top;">:</td><td><div>andre</div></td></tr></table></div></td></tr><tr><td style="font-weight:bold;vertical-align:top;">user_groups</td><td style="vertical-align:top;">:</td><td><div><table></table></div></td></tr></table></div></td></tr><tr><td style="font-weight:bold;vertical-align:top;">flash</td><td style="vertical-align:top;">:</td><td><div>None</div></td></tr></table></div>'
tRp109
sS'etype'
p110
S"<type 'exceptions.TypeError'>"
p111
sS'date'
p112
S'Fri May  8 14:20:27 2015'
p113
sS'response'
p114
g57
(S's\xfe\x17\x00\x00<div><table><tr><td style="font-weight:bold;vertical-align:top;">body</td><td style="vertical-align:top;">:</td><td><div>&lt;cStringIO.StringO object at 0x7f97f1055308&gt;</div></td></tr><tr><td style="font-weight:bold;vertical-align:top;">cookies</td><td style="vertical-align:top;">:</td><td><div><table><tr><td style="font-weight:bold;vertical-align:top;">session_id_teste_ldap</td><td style="vertical-align:top;">:</td><td><div>127.0.0.1-4dac357f-9b9f-4272-b383-89940e5c5da8<table><tr><td style="font-weight:bold;vertical-align:top;">comment</td><td style="vertical-align:top;">:</td><td><div></div></td></tr><tr><td style="font-weight:bold;vertical-align:top;">domain</td><td style="vertical-align:top;">:</td><td><div></div></td></tr><tr><td style="font-weight:bold;vertical-align:top;">expires</td><td style="vertical-align:top;">:</td><td><div></div></td></tr><tr><td style="font-weight:bold;vertical-align:top;">httponly</td><td style="vertical-align:top;">:</td><td><div></div></td></tr><tr><td style="font-weight:bold;vertical-align:top;">max-age</td><td style="vertical-align:top;">:</td><td><div></div></td></tr><tr><td style="font-weight:bold;vertical-align:top;">path</td><td style="vertical-align:top;">:</td><td><div>/</div></td></tr><tr><td style="font-weight:bold;vertical-align:top;">secure</td><td style="vertical-align:top;">:</td><td><div></div></td></tr><tr><td style="font-weight:bold;vertical-align:top;">version</td><td style="vertical-align:top;">:</td><td><div></div></td></tr></table></div></td></tr></table></div></td></tr><tr><td style="font-weight:bold;vertical-align:top;">delimiters</td><td style="vertical-align:top;">:</td><td><div><table><tr><td><div>{{</div></td></tr><tr><td><div>}}</div></td></tr></table></div></td></tr><tr><td style="font-weight:bold;vertical-align:top;">files</td><td style="vertical-align:top;">:</td><td><div><table></table></div></td></tr><tr><td style="font-weight:bold;vertical-align:top;">flash</td><td style="vertical-align:top;">:</td><td><div></div></td></tr><tr><td style="font-weight:bold;vertical-align:top;">form_label_separator</td><td style="vertical-align:top;">:</td><td><div>: </div></td></tr><tr><td style="font-weight:bold;vertical-align:top;">formstyle</td><td style="vertical-align:top;">:</td><td><div>table3cols</div></td></tr><tr><td style="font-weight:bold;vertical-align:top;">generic_patterns</td><td style="vertical-align:top;">:</td><td><div><table><tr><td><div>*</div></td></tr></table></div></td></tr><tr><td style="font-weight:bold;vertical-align:top;">headers</td><td style="vertical-align:top;">:</td><td><div><table><tr><td style="font-weight:bold;vertical-align:top;">X-Powered-By</td><td style="vertical-align:top;">:</td><td><div>web2py</div></td></tr></table></div></td></tr><tr><td style="font-weight:bold;vertical-align:top;">menu</td><td style="vertical-align:top;">:</td><td><div><table></table></div></td></tr><tr><td style="font-weight:bold;vertical-align:top;">meta</td><td style="vertical-align:top;">:</td><td><div><table></table></div></td></tr><tr><td style="font-weight:bold;vertical-align:top;">models_to_run</td><td style="vertical-align:top;">:</td><td><div><table><tr><td><div>^\\w+\\.py$</div></td></tr><tr><td><div>^principal/\\w+\\.py$</div></td></tr><tr><td><div>^principal/index/\\w+\\.py$</div></td></tr></table></div></td></tr><tr><td style="font-weight:bold;vertical-align:top;">postprocessing</td><td style="vertical-align:top;">:</td><td><div><table></table></div></td></tr><tr><td style="font-weight:bold;vertical-align:top;">session_client</td><td style="vertical-align:top;">:</td><td><div>127.0.0.1</div></td></tr><tr><td style="font-weight:bold;vertical-align:top;">session_cookie_compression_level</td><td style="vertical-align:top;">:</td><td><div>None</div></td></tr><tr><td style="font-weight:bold;vertical-align:top;">session_cookie_expires</td><td style="vertical-align:top;">:</td><td><div>None</div></td></tr><tr><td style="font-weight:bold;vertical-align:top;">session_cookie_key</td><td style="vertical-align:top;">:</td><td><div>None</div></td></tr><tr><td style="font-weight:bold;vertical-align:top;">session_data_name</td><td style="vertical-align:top;">:</td><td><div>session_data_teste_ldap</div></td></tr><tr><td style="font-weight:bold;vertical-align:top;">session_file</td><td style="vertical-align:top;">:</td><td><div>&lt;open file &#x27;/var/www/web2py/applications/teste_ldap/sessions/190/1ef/127.0.0.1-4dac357f-9b9f-4272-b383-89940e5c5da8&#x27;, mode &#x27;rb+&#x27; at 0x7f97f118bd20&gt;</div></td></tr><tr><td style="font-weight:bold;vertical-align:top;">session_filename</td><td style="vertical-align:top;">:</td><td><div>/var/www/web2py/applications/teste_ldap/sessions/127.0.0.1-4dac357f-9b9f-4272-b383-89940e5c5da8</div></td></tr><tr><td style="font-weight:bold;vertical-align:top;">session_hash</td><td style="vertical-align:top;">:</td><td><div>4bff135ac062ec8a957cdc60422090ad</div></td></tr><tr><td style="font-weight:bold;vertical-align:top;">session_id</td><td style="vertical-align:top;">:</td><td><div>127.0.0.1-4dac357f-9b9f-4272-b383-89940e5c5da8</div></td></tr><tr><td style="font-weight:bold;vertical-align:top;">session_id_name</td><td style="vertical-align:top;">:</td><td><div>session_id_teste_ldap</div></td></tr><tr><td style="font-weight:bold;vertical-align:top;">session_locked</td><td style="vertical-align:top;">:</td><td><div>True</div></td></tr><tr><td style="font-weight:bold;vertical-align:top;">session_masterapp</td><td style="vertical-align:top;">:</td><td><div>teste_ldap</div></td></tr><tr><td style="font-weight:bold;vertical-align:top;">session_new</td><td style="vertical-align:top;">:</td><td><div>False</div></td></tr><tr><td style="font-weight:bold;vertical-align:top;">session_storage_type</td><td style="vertical-align:top;">:</td><td><div>file</div></td></tr><tr><td style="font-weight:bold;vertical-align:top;">status</td><td style="vertical-align:top;">:</td><td><div>200</div></td></tr><tr><td style="font-weight:bold;vertical-align:top;">view</td><td style="vertical-align:top;">:</td><td><div>principal/index.html</div></td></tr></table></div>'
tRp115
sS'locals'
p116
(dp117
S'OBJECT'
p118
S"<class 'gluon.html.OBJECT'>"
p119
sS'results'
p120
S'<generator object <genexpr>>'
p121
sS'SQLDB'
p122
S"<class 'pydal.base.DAL'>"
p123
sg108
S"<Storage {'_auth_next': None, 'flash': None, 'au...gin]': ['06ca8d75-e14e-4b34-b74a-0e349f9ab834']}>"
p124
sS'LINK'
p125
S"<class 'gluon.html.LINK'>"
p126
sS'BR'
p127
S"<class 'gluon.html.BR'>"
p128
sS'local_import'
p129
S'<function <lambda>>'
p130
sS'OPTGROUP'
p131
S"<class 'gluon.html.OPTGROUP'>"
p132
sS'__package__'
p133
S'None'
p134
sS'PRE'
p135
S"<class 'gluon.html.PRE'>"
p136
sS'IS_INT_IN_RANGE'
p137
S"<class 'gluon.validators.IS_INT_IN_RANGE'>"
p138
sS'IS_LOWER'
p139
S"<class 'gluon.validators.IS_LOWER'>"
p140
sS'IS_STRONG'
p141
S"<class 'gluon.validators.IS_STRONG'>"
p142
sS'cache'
p143
S'<gluon.cache.Cache object>'
p144
sS'IS_IN_DB'
p145
S"<class 'gluon.validators.IS_IN_DB'>"
p146
sS'TAG'
p147
S'<gluon.html.__TAG__ object>'
p148
sS'ldap'
p149
S"<module 'ldap' from '/usr/lib/python2.7/dist-packages/ldap/__init__.pyc'>"
p150
sS'SQLField'
p151
S"<class 'pydal.objects.Field'>"
p152
sS'BODY'
p153
S"<class 'gluon.html.BODY'>"
p154
sS'IS_DATE_IN_RANGE'
p155
S"<class 'gluon.validators.IS_DATE_IN_RANGE'>"
p156
sS'IFRAME'
p157
S"<class 'gluon.html.IFRAME'>"
p158
sS'URL'
p159
S'<function URL>'
p160
sS'config'
p161
S"<Storage {'db': <Storage {'uri': 'postgres:pg8000://matheus:123456@localhost/teste_ldap'}>}>"
p162
sS'__file__'
p163
S"'/var/www/web2py/applications/teste_ldap/views/principal/index.html'"
p164
sS'db'
p165
S'<DAL uri="postgres:pg8000:******@localhost/teste_ldap">'
p166
sS'auth'
p167
S'<gluon.tools.Auth object>'
p168
sS'P'
S"<class 'gluon.html.P'>"
p169
sS'TFOOT'
p170
S"<class 'gluon.html.TFOOT'>"
p171
sS'XHTML'
p172
S"<class 'gluon.html.XHTML'>"
p173
sS'ON'
p174
S'True'
p175
sS'OL'
p176
S"<class 'gluon.html.OL'>"
p177
sS'TEXTAREA'
p178
S"<class 'gluon.html.TEXTAREA'>"
p179
sS'MENU'
p180
S"<class 'gluon.html.MENU'>"
p181
sS'l'
S'<ldap.ldapobject.SimpleLDAPObject instance>'
p182
sS'ldap_auth'
p183
S'<function ldap_auth>'
p184
sS'IS_IMAGE'
p185
S"<class 'gluon.validators.IS_IMAGE'>"
p186
sS'EM'
p187
S"<class 'gluon.html.EM'>"
p188
sS'CODE'
p189
S"<class 'gluon.html.CODE'>"
p190
sS'HTTP'
p191
S"<class 'gluon.http.HTTP'>"
p192
sS'HR'
p193
S"<class 'gluon.html.HR'>"
p194
sS'IS_DATETIME'
p195
S"<class 'gluon.validators.IS_DATETIME'>"
p196
sS'Storage'
p197
S"<class 'gluon.storage.Storage'>"
p198
sS'STYLE'
p199
S"<class 'gluon.html.STYLE'>"
p200
sS'LABEL'
p201
S"<class 'gluon.html.LABEL'>"
p202
sS'CLEANUP'
p203
S"<class 'gluon.validators.CLEANUP'>"
p204
sS'result'
p205
S"[('CN=Administrator,CN=Users,DC=forip,DC=local', {}), ('CN=Guest,CN=Users,DC=forip,DC=local', {}), ('CN=WIN-8RGA86UBF7C,OU=Domain Controllers,DC=forip,DC=local', {}), ('CN=krbtgt,CN=Users,DC=forip,DC=local', {}), ('CN=Andre Ribeiro,CN=Users,DC=forip,DC=local', {'displayName': ['Andre Ribeiro'], 'facsimileTelephoneNumber': ['65656555'], 'ipPhone': ['8040@asterisk.forip.com.br'], 'mobile': ['016992340876']}), ('CN=Matheus Suffi,CN=Users,DC=forip,DC=local', {'displayName': ['Matheus Suffi'], 'facsimileTelephoneNumber': ['34035555'], 'ipPhone': ['34034158'], 'mobile': ['992031462']}), (None, ['ldap://ForestDnsZones.forip.local/DC=ForestDnsZones,DC=forip,DC=local']), (None, ['ldap://DomainDnsZones.forip.local/DC=DomainDnsZones,DC=forip,DC=local']), (None, ['ldap://forip.local/CN=Configuration,DC=forip,DC=local'])]"
p206
sS'SELECT'
p207
S"<class 'gluon.html.SELECT'>"
p208
sS'CENTER'
p209
S"<class 'gluon.html.CENTER'>"
p210
sS'Auth'
p211
S"<class 'gluon.tools.Auth'>"
p212
sS'__builtins__'
p213
S"{'ArithmeticError': <type 'exceptions.ArithmeticError'>, 'AssertionError': <type 'exceptions.AssertionError'>, 'AttributeError': <type 'exceptions.AttributeError'>, 'BaseException': <type 'exceptions.BaseException'>, 'BufferError': <type 'exceptions.BufferError'>, 'BytesWarning': <type 'exceptions.BytesWarning'>, 'DeprecationWarning': <type 'exceptions.DeprecationWarning'>, 'EOFError': <type 'exceptions.EOFError'>, 'Ellipsis': Ellipsis, 'EnvironmentError': <type 'exceptions.EnvironmentError'>, ...}"
p214
sS'HTML'
p215
S"<class 'gluon.html.HTML'>"
p216
sS'SQLFORM'
p217
S"<class 'gluon.sqlhtml.SQLFORM'>"
p218
sS'LOAD'
p219
S'<function LOAD>'
p220
sS'redirect'
p221
S'<function redirect>'
p222
sS'FIELDSET'
p223
S"<class 'gluon.html.FIELDSET'>"
p224
sS'IS_EQUAL_TO'
p225
S"<class 'gluon.validators.IS_EQUAL_TO'>"
p226
sS'embed64'
p227
S'<function embed64>'
p228
sS'base'
p229
S"'dc=forip, dc=local'"
p230
sS'IS_LIST_OF'
p231
S"<class 'gluon.validators.IS_LIST_OF'>"
p232
sS'INPUT'
p233
S"<class 'gluon.html.INPUT'>"
p234
sS'EMBED'
p235
S"<class 'gluon.html.EMBED'>"
p236
sS'H2'
p237
S"<class 'gluon.html.H2'>"
p238
sS'H3'
p239
S"<class 'gluon.html.H3'>"
p240
sS'BUTTON'
p241
S"<class 'gluon.html.BUTTON'>"
p242
sS'H1'
p243
S"<class 'gluon.html.H1'>"
p244
sS'H6'
p245
S"<class 'gluon.html.H6'>"
p246
sS'H4'
p247
S"<class 'gluon.html.H4'>"
p248
sS'H5'
p249
S"<class 'gluon.html.H5'>"
p250
sS'UL'
p251
S"<class 'gluon.html.UL'>"
p252
sS'IS_UPPER'
p253
S"<class 'gluon.validators.IS_UPPER'>"
p254
sS'xmlescape'
p255
S'<function xmlescape>'
p256
sS'attributes'
p257
S"['displayName', 'Mobile', 'facsimileTelephoneNumber', 'ipPhone']"
p258
sS'IS_TIME'
p259
S"<class 'gluon.validators.IS_TIME'>"
p260
sS'OPTION'
p261
S"<class 'gluon.html.OPTION'>"
p262
sS'TITLE'
p263
S"<class 'gluon.html.TITLE'>"
p264
sS'CRYPT'
p265
S"<class 'gluon.validators.CRYPT'>"
p266
sS'IS_EMPTY_OR'
p267
S"<class 'gluon.validators.IS_EMPTY_OR'>"
p268
sS'MARKMIN'
p269
S"<class 'gluon.html.MARKMIN'>"
p270
sS'__name__'
p271
S"'__restricted__'"
p272
sS'STRONG'
p273
S"<class 'gluon.html.STRONG'>"
p274
sS'COL'
p275
S"<class 'gluon.html.COL'>"
p276
sS'SCRIPT'
p277
S"<class 'gluon.html.SCRIPT'>"
p278
sS'criteria'
p279
S"'(&(objectClass=user))'"
p280
sS'TABLE'
p281
S"<class 'gluon.html.TABLE'>"
p282
sS'IS_IPV4'
p283
S"<class 'gluon.validators.IS_IPV4'>"
p284
sS'IS_LENGTH'
p285
S"<class 'gluon.validators.IS_LENGTH'>"
p286
sS'IS_IPV6'
p287
S"<class 'gluon.validators.IS_IPV6'>"
p288
sS'XML'
p289
S"<class 'gluon.html.XML'>"
p290
sS'B'
S"<class 'gluon.html.B'>"
p291
sS'IMG'
p292
S"<class 'gluon.html.IMG'>"
p293
sS'SQLTABLE'
p294
S"<class 'gluon.sqlhtml.SQLTABLE'>"
p295
sS'IS_MATCH'
p296
S"<class 'gluon.validators.IS_MATCH'>"
p297
sS'IS_ALPHANUMERIC'
p298
S"<class 'gluon.validators.IS_ALPHANUMERIC'>"
p299
sS'SPAN'
p300
S"<class 'gluon.html.SPAN'>"
p301
sS'IS_JSON'
p302
S"<class 'gluon.validators.IS_JSON'>"
p303
sS'IS_IPADDRESS'
p304
S"<class 'gluon.validators.IS_IPADDRESS'>"
p305
sS'IS_SLUG'
p306
S"<class 'gluon.validators.IS_SLUG'>"
p307
sS'BEAUTIFY'
p308
S"<class 'gluon.html.BEAUTIFY'>"
p309
sS'META'
p310
S"<class 'gluon.html.META'>"
p311
sS'IS_DATE'
p312
S"<class 'gluon.validators.IS_DATE'>"
p313
sS'IS_EMAIL'
p314
S"<class 'gluon.validators.IS_EMAIL'>"
p315
sS'IS_NOT_EMPTY'
p316
S"<class 'gluon.validators.IS_NOT_EMPTY'>"
p317
sS'IS_FLOAT_IN_RANGE'
p318
S"<class 'gluon.validators.IS_FLOAT_IN_RANGE'>"
p319
sS'TBODY'
p320
S"<class 'gluon.html.TBODY'>"
p321
sS'CAT'
p322
S"<class 'gluon.html.CAT'>"
p323
sS'Field'
p324
S"<class 'pydal.objects.Field'>"
p325
sS'IS_LIST_OF_EMAILS'
p326
S"<class 'gluon.validators.IS_LIST_OF_EMAILS'>"
p327
sS'DIV'
p328
S"<class 'gluon.html.DIV'>"
p329
sS'LEGEND'
p330
S"<class 'gluon.html.LEGEND'>"
p331
sS'COLGROUP'
p332
S"<class 'gluon.html.COLGROUP'>"
p333
sS'DAL'
p334
S"<class 'pydal.base.DAL'>"
p335
sS'ASSIGNJS'
p336
S'<function ASSIGNJS>'
p337
sS'TR'
p338
S"<class 'gluon.html.TR'>"
p339
sS'LI'
p340
S"<class 'gluon.html.LI'>"
p341
sS'TH'
p342
S"<class 'gluon.html.TH'>"
p343
sS'TD'
p344
S"<class 'gluon.html.TD'>"
p345
sS'IS_URL'
p346
S"<class 'gluon.validators.IS_URL'>"
p347
sS'A'
S"<class 'gluon.html.A'>"
p348
sS'HEAD'
p349
S"<class 'gluon.html.HEAD'>"
p350
sS'IS_NULL_OR'
p351
S"<class 'gluon.validators.IS_EMPTY_OR'>"
p352
sS'IS_DATETIME_IN_RANGE'
p353
S"<class 'gluon.validators.IS_DATETIME_IN_RANGE'>"
p354
sS'FORM'
p355
S"<class 'gluon.html.FORM'>"
p356
sS'I'
S"<class 'gluon.html.I'>"
p357
sS'IS_NOT_IN_DB'
p358
S"<class 'gluon.validators.IS_NOT_IN_DB'>"
p359
sg114
S"<Storage {'body': <cStringIO.StringO object at 0...0x7f97f10a3848>, 'view': 'principal/index.html'}>"
p360
sS'THEAD'
p361
S"<class 'gluon.html.THEAD'>"
p362
sS'ANY_OF'
p363
S"<class 'gluon.validators.ANY_OF'>"
p364
sS'resultado'
p365
S"[{'displayName': ['Andre Ribeiro'], 'facsimileTelephoneNumber': ['65656555'], 'ipPhone': ['8040@asterisk.forip.com.br'], 'mobile': ['016992340876']}, {'displayName': ['Matheus Suffi'], 'facsimileTelephoneNumber': ['34035555'], 'ipPhone': ['34034158'], 'mobile': ['992031462']}]"
p366
sS'bind'
p367
S'(97, [], 1, [])'
p368
sg56
S"<Storage {'_vars': None, 'function': 'index', 'c...er': '/var/www/web2py/applications/teste_ldap/'}>"
p369
sS'IS_EXPR'
p370
S"<class 'gluon.validators.IS_EXPR'>"
p371
sS'T'
S'<gluon.languages.translator object>'
p372
sS'IS_IN_SET'
p373
S"<class 'gluon.validators.IS_IN_SET'>"
p374
sS'IS_UPLOAD_FILENAME'
p375
S"<class 'gluon.validators.IS_UPLOAD_FILENAME'>"
p376
sS'TT'
p377
S"<class 'gluon.html.TT'>"
p378
sS'IS_DECIMAL_IN_RANGE'
p379
S"<class 'gluon.validators.IS_DECIMAL_IN_RANGE'>"
p380
sssS'traceback'
p381
S'Traceback (most recent call last):\n  File "/var/www/web2py/gluon/restricted.py", line 227, in restricted\n    exec ccode in environment\n  File "/var/www/web2py/applications/teste_ldap/views/principal/index.html", line 1, in <module>\n    {{for item in resultado[\'facsimileTelephoneNumber\']:}}\nTypeError: list indices must be integers, not str\n'
p382
s.